Archive member included to satisfy reference by file (symbol)

/opt/wut/lib/libwutmalloc.a(wut_malloc.c.obj)
                              (--whole-archive)
/opt/devkitpro/wups/lib/libwups.a(fs_function_wrapper.o)
                              main.o (WUPS_InitFS)
/opt/wut/lib/libutilswut.a(logger.c.obj)
                              main.o (log_init_)
/opt/wut/lib/libcoreinit.a(coreinit.s.obj)
                              /opt/wut/lib/libwutmalloc.a(wut_malloc.c.obj) (MEMGetSizeForMBlockExpHeap)
/opt/wut/lib/libnsysnet.a(nsysnet.s.obj)
                              /opt/wut/lib/libutilswut.a(logger.c.obj) (htonl)
/opt/wut/lib/libgx2.a(gx2.s.obj)
                              Texture2DShader.o (GX2CalcFetchShaderSizeEx)
/opt/devkitpro/devkitPPC/lib/gcc/powerpc-eabi/8.2.0/../../../../powerpc-eabi/lib/libstdc++.a(new_opv.o)
                              Texture2DShader.o (_Znaj)
/opt/devkitpro/devkitPPC/lib/gcc/powerpc-eabi/8.2.0/../../../../powerpc-eabi/lib/libstdc++.a(new_op.o)
                              main.o (_Znwj)
/opt/devkitpro/devkitPPC/lib/gcc/powerpc-eabi/8.2.0/../../../../powerpc-eabi/lib/libstdc++.a(bad_alloc.o)
                              /opt/devkitpro/devkitPPC/lib/gcc/powerpc-eabi/8.2.0/../../../../powerpc-eabi/lib/libstdc++.a(new_op.o) (_ZTVSt9bad_alloc)
/opt/devkitpro/devkitPPC/lib/gcc/powerpc-eabi/8.2.0/../../../../powerpc-eabi/lib/libstdc++.a(eh_personality.o)
                              main.o (__gxx_personality_v0)
/opt/devkitpro/devkitPPC/lib/gcc/powerpc-eabi/8.2.0/../../../../powerpc-eabi/lib/libstdc++.a(class_type_info.o)
                              Texture2DShader.o (_ZTVN10__cxxabiv117__class_type_infoE)
/opt/devkitpro/devkitPPC/lib/gcc/powerpc-eabi/8.2.0/../../../../powerpc-eabi/lib/libstdc++.a(del_opv.o)
                              Texture2DShader.o (_ZdaPv)
/opt/devkitpro/devkitPPC/lib/gcc/powerpc-eabi/8.2.0/../../../../powerpc-eabi/lib/libstdc++.a(new_handler.o)
                              /opt/devkitpro/devkitPPC/lib/gcc/powerpc-eabi/8.2.0/../../../../powerpc-eabi/lib/libstdc++.a(new_op.o) (_ZSt15get_new_handlerv)
/opt/devkitpro/devkitPPC/lib/gcc/powerpc-eabi/8.2.0/../../../../powerpc-eabi/lib/libstdc++.a(eh_exception.o)
                              /opt/devkitpro/devkitPPC/lib/gcc/powerpc-eabi/8.2.0/../../../../powerpc-eabi/lib/libstdc++.a(bad_alloc.o) (_ZNSt9exceptionD2Ev)
/opt/devkitpro/devkitPPC/lib/gcc/powerpc-eabi/8.2.0/../../../../powerpc-eabi/lib/libstdc++.a(del_ops.o)
                              /opt/devkitpro/devkitPPC/lib/gcc/powerpc-eabi/8.2.0/../../../../powerpc-eabi/lib/libstdc++.a(bad_alloc.o) (_ZdlPvj)
/opt/devkitpro/devkitPPC/lib/gcc/powerpc-eabi/8.2.0/../../../../powerpc-eabi/lib/libstdc++.a(eh_throw.o)
                              /opt/devkitpro/devkitPPC/lib/gcc/powerpc-eabi/8.2.0/../../../../powerpc-eabi/lib/libstdc++.a(new_op.o) (__cxa_throw)
/opt/devkitpro/devkitPPC/lib/gcc/powerpc-eabi/8.2.0/../../../../powerpc-eabi/lib/libstdc++.a(eh_catch.o)
                              /opt/devkitpro/devkitPPC/lib/gcc/powerpc-eabi/8.2.0/../../../../powerpc-eabi/lib/libstdc++.a(eh_personality.o) (__cxa_begin_catch)
/opt/devkitpro/devkitPPC/lib/gcc/powerpc-eabi/8.2.0/../../../../powerpc-eabi/lib/libstdc++.a(eh_alloc.o)
                              /opt/devkitpro/devkitPPC/lib/gcc/powerpc-eabi/8.2.0/../../../../powerpc-eabi/lib/libstdc++.a(new_op.o) (__cxa_allocate_exception)
/opt/devkitpro/devkitPPC/lib/gcc/powerpc-eabi/8.2.0/../../../../powerpc-eabi/lib/libstdc++.a(del_op.o)
                              main.o (_ZdlPv)
/opt/devkitpro/devkitPPC/lib/gcc/powerpc-eabi/8.2.0/../../../../powerpc-eabi/lib/libstdc++.a(si_class_type_info.o)
                              Texture2DShader.o (_ZTVN10__cxxabiv120__si_class_type_infoE)
/opt/devkitpro/devkitPPC/lib/gcc/powerpc-eabi/8.2.0/../../../../powerpc-eabi/lib/libstdc++.a(pure.o)
                              /opt/devkitpro/devkitPPC/lib/gcc/powerpc-eabi/8.2.0/../../../../powerpc-eabi/lib/libstdc++.a(eh_exception.o) (__cxa_pure_virtual)
/opt/devkitpro/devkitPPC/lib/gcc/powerpc-eabi/8.2.0/../../../../powerpc-eabi/lib/libstdc++.a(eh_call.o)
                              /opt/devkitpro/devkitPPC/lib/gcc/powerpc-eabi/8.2.0/../../../../powerpc-eabi/lib/libstdc++.a(eh_personality.o) (__cxa_call_terminate)
/opt/devkitpro/devkitPPC/lib/gcc/powerpc-eabi/8.2.0/../../../../powerpc-eabi/lib/libstdc++.a(eh_globals.o)
                              /opt/devkitpro/devkitPPC/lib/gcc/powerpc-eabi/8.2.0/../../../../powerpc-eabi/lib/libstdc++.a(eh_personality.o) (__cxa_get_globals_fast)
/opt/devkitpro/devkitPPC/lib/gcc/powerpc-eabi/8.2.0/../../../../powerpc-eabi/lib/libstdc++.a(eh_terminate.o)
                              /opt/devkitpro/devkitPPC/lib/gcc/powerpc-eabi/8.2.0/../../../../powerpc-eabi/lib/libstdc++.a(eh_personality.o) (_ZN10__cxxabiv111__terminateEPFvvE)
/opt/devkitpro/devkitPPC/lib/gcc/powerpc-eabi/8.2.0/../../../../powerpc-eabi/lib/libstdc++.a(tinfo.o)
                              /opt/devkitpro/devkitPPC/lib/gcc/powerpc-eabi/8.2.0/../../../../powerpc-eabi/lib/libstdc++.a(class_type_info.o) (_ZNSt9type_infoD2Ev)
/opt/devkitpro/devkitPPC/lib/gcc/powerpc-eabi/8.2.0/../../../../powerpc-eabi/lib/libstdc++.a(eh_term_handler.o)
                              /opt/devkitpro/devkitPPC/lib/gcc/powerpc-eabi/8.2.0/../../../../powerpc-eabi/lib/libstdc++.a(eh_terminate.o) (_ZN10__cxxabiv119__terminate_handlerE)
/opt/devkitpro/devkitPPC/lib/gcc/powerpc-eabi/8.2.0/../../../../powerpc-eabi/lib/libstdc++.a(eh_unex_handler.o)
                              /opt/devkitpro/devkitPPC/lib/gcc/powerpc-eabi/8.2.0/../../../../powerpc-eabi/lib/libstdc++.a(eh_terminate.o) (_ZN10__cxxabiv120__unexpected_handlerE)
/opt/devkitpro/devkitPPC/lib/gcc/powerpc-eabi/8.2.0/libgcc.a(_udivdi3.o)
                              /opt/wut/lib/libutilswut.a(logger.c.obj) (__udivdi3)
/opt/devkitpro/devkitPPC/lib/gcc/powerpc-eabi/8.2.0/libgcc.a(gthr-dkp.o)
                              /opt/devkitpro/devkitPPC/lib/gcc/powerpc-eabi/8.2.0/../../../../powerpc-eabi/lib/libstdc++.a(eh_alloc.o) (__gthread_active_p)
/opt/devkitpro/devkitPPC/lib/gcc/powerpc-eabi/8.2.0/libgcc.a(crtresxfpr.o)
                              main.o (_restfpr_30_x)
/opt/devkitpro/devkitPPC/lib/gcc/powerpc-eabi/8.2.0/libgcc.a(crtresxgpr.o)
                              Texture2DShader.o (_restgpr_25_x)
/opt/devkitpro/devkitPPC/lib/gcc/powerpc-eabi/8.2.0/libgcc.a(unwind-dw2.o)
                              /opt/devkitpro/devkitPPC/lib/gcc/powerpc-eabi/8.2.0/../../../../powerpc-eabi/lib/libstdc++.a(eh_personality.o) (_Unwind_SetGR)
/opt/devkitpro/devkitPPC/lib/gcc/powerpc-eabi/8.2.0/libgcc.a(unwind-dw2-fde.o)
                              /opt/devkitpro/devkitPPC/lib/gcc/powerpc-eabi/8.2.0/libgcc.a(unwind-dw2.o) (_Unwind_Find_FDE)
/opt/devkitpro/devkitPPC/lib/gcc/powerpc-eabi/8.2.0/../../../../powerpc-eabi/lib/libsysbase.a(abort.o)
                              /opt/devkitpro/devkitPPC/lib/gcc/powerpc-eabi/8.2.0/../../../../powerpc-eabi/lib/libstdc++.a(eh_personality.o) (abort)
/opt/devkitpro/devkitPPC/lib/gcc/powerpc-eabi/8.2.0/../../../../powerpc-eabi/lib/libsysbase.a(_exit.o)
                              /opt/devkitpro/devkitPPC/lib/gcc/powerpc-eabi/8.2.0/../../../../powerpc-eabi/lib/libsysbase.a(abort.o) (_exit)
/opt/devkitpro/devkitPPC/lib/gcc/powerpc-eabi/8.2.0/../../../../powerpc-eabi/lib/libsysbase.a(mkdir.o)
                              /opt/devkitpro/wups/lib/libwups.a(fs_function_wrapper.o) (mkdir)
/opt/devkitpro/devkitPPC/lib/gcc/powerpc-eabi/8.2.0/../../../../powerpc-eabi/lib/libsysbase.a(syscall_support.o)
                              /opt/devkitpro/devkitPPC/lib/gcc/powerpc-eabi/8.2.0/../../../../powerpc-eabi/lib/libsysbase.a(_exit.o) (__syscalls)
/opt/devkitpro/devkitPPC/lib/gcc/powerpc-eabi/8.2.0/../../../../powerpc-eabi/lib/libsysbase.a(dirent.o)
                              /opt/devkitpro/wups/lib/libwups.a(fs_function_wrapper.o) (opendir)
/opt/devkitpro/devkitPPC/lib/gcc/powerpc-eabi/8.2.0/../../../../powerpc-eabi/lib/libsysbase.a(iosupport.o)
                              /opt/devkitpro/devkitPPC/lib/gcc/powerpc-eabi/8.2.0/../../../../powerpc-eabi/lib/libsysbase.a(mkdir.o) (FindDevice)
/opt/devkitpro/devkitPPC/lib/gcc/powerpc-eabi/8.2.0/../../../../powerpc-eabi/lib/libc.a(lib_a-errno.o)
                              /opt/devkitpro/devkitPPC/lib/gcc/powerpc-eabi/8.2.0/../../../../powerpc-eabi/lib/libsysbase.a(dirent.o) (__errno)
/opt/devkitpro/devkitPPC/lib/gcc/powerpc-eabi/8.2.0/../../../../powerpc-eabi/lib/libc.a(lib_a-impure.o)
                              /opt/devkitpro/devkitPPC/lib/gcc/powerpc-eabi/8.2.0/../../../../powerpc-eabi/lib/libsysbase.a(mkdir.o) (_impure_ptr)
/opt/devkitpro/devkitPPC/lib/gcc/powerpc-eabi/8.2.0/../../../../powerpc-eabi/lib/libc.a(lib_a-locale.o)
                              /opt/devkitpro/devkitPPC/lib/gcc/powerpc-eabi/8.2.0/../../../../powerpc-eabi/lib/libsysbase.a(iosupport.o) (__locale_ctype_ptr)
/opt/devkitpro/devkitPPC/lib/gcc/powerpc-eabi/8.2.0/../../../../powerpc-eabi/lib/libc.a(lib_a-malign.o)
                              main.o (memalign)
/opt/devkitpro/devkitPPC/lib/gcc/powerpc-eabi/8.2.0/../../../../powerpc-eabi/lib/libc.a(lib_a-malloc.o)
                              Texture2DShader.o (malloc)
/opt/devkitpro/devkitPPC/lib/gcc/powerpc-eabi/8.2.0/../../../../powerpc-eabi/lib/libc.a(lib_a-mbtowc_r.o)
                              /opt/devkitpro/devkitPPC/lib/gcc/powerpc-eabi/8.2.0/../../../../powerpc-eabi/lib/libc.a(lib_a-locale.o) (__ascii_mbtowc)
/opt/devkitpro/devkitPPC/lib/gcc/powerpc-eabi/8.2.0/../../../../powerpc-eabi/lib/libc.a(lib_a-memcpy.o)
                              main.o (memcpy)
/opt/devkitpro/devkitPPC/lib/gcc/powerpc-eabi/8.2.0/../../../../powerpc-eabi/lib/libc.a(lib_a-memset.o)
                              main.o (memset)
/opt/devkitpro/devkitPPC/lib/gcc/powerpc-eabi/8.2.0/../../../../powerpc-eabi/lib/libc.a(lib_a-strcasecmp.o)
                              /opt/devkitpro/devkitPPC/lib/gcc/powerpc-eabi/8.2.0/../../../../powerpc-eabi/lib/libc.a(lib_a-locale.o) (strcasecmp)
/opt/devkitpro/devkitPPC/lib/gcc/powerpc-eabi/8.2.0/../../../../powerpc-eabi/lib/libc.a(lib_a-strcat.o)
                              /opt/devkitpro/devkitPPC/lib/gcc/powerpc-eabi/8.2.0/../../../../powerpc-eabi/lib/libc.a(lib_a-locale.o) (strcat)
/opt/devkitpro/devkitPPC/lib/gcc/powerpc-eabi/8.2.0/../../../../powerpc-eabi/lib/libc.a(lib_a-strchr.o)
                              /opt/devkitpro/devkitPPC/lib/gcc/powerpc-eabi/8.2.0/../../../../powerpc-eabi/lib/libsysbase.a(iosupport.o) (strchr)
/opt/devkitpro/devkitPPC/lib/gcc/powerpc-eabi/8.2.0/../../../../powerpc-eabi/lib/libc.a(lib_a-strcmp.o)
                              /opt/devkitpro/devkitPPC/lib/gcc/powerpc-eabi/8.2.0/../../../../powerpc-eabi/lib/libstdc++.a(class_type_info.o) (strcmp)
/opt/devkitpro/devkitPPC/lib/gcc/powerpc-eabi/8.2.0/../../../../powerpc-eabi/lib/libc.a(lib_a-strcpy.o)
                              Texture2DShader.o (strcpy)
/opt/devkitpro/devkitPPC/lib/gcc/powerpc-eabi/8.2.0/../../../../powerpc-eabi/lib/libc.a(lib_a-strlcpy.o)
                              /opt/devkitpro/devkitPPC/lib/gcc/powerpc-eabi/8.2.0/../../../../powerpc-eabi/lib/libc.a(lib_a-locale.o) (strlcpy)
/opt/devkitpro/devkitPPC/lib/gcc/powerpc-eabi/8.2.0/../../../../powerpc-eabi/lib/libc.a(lib_a-strlen.o)
                              Texture2DShader.o (strlen)
/opt/devkitpro/devkitPPC/lib/gcc/powerpc-eabi/8.2.0/../../../../powerpc-eabi/lib/libc.a(lib_a-strncasecmp.o)
                              /opt/devkitpro/devkitPPC/lib/gcc/powerpc-eabi/8.2.0/../../../../powerpc-eabi/lib/libc.a(lib_a-locale.o) (strncasecmp)
/opt/devkitpro/devkitPPC/lib/gcc/powerpc-eabi/8.2.0/../../../../powerpc-eabi/lib/libc.a(lib_a-strncmp.o)
                              /opt/devkitpro/devkitPPC/lib/gcc/powerpc-eabi/8.2.0/../../../../powerpc-eabi/lib/libsysbase.a(iosupport.o) (strncmp)
/opt/devkitpro/devkitPPC/lib/gcc/powerpc-eabi/8.2.0/../../../../powerpc-eabi/lib/libc.a(lib_a-strncpy.o)
                              /opt/devkitpro/devkitPPC/lib/gcc/powerpc-eabi/8.2.0/../../../../powerpc-eabi/lib/libsysbase.a(dirent.o) (strncpy)
/opt/devkitpro/devkitPPC/lib/gcc/powerpc-eabi/8.2.0/../../../../powerpc-eabi/lib/libc.a(lib_a-strnlen.o)
                              /opt/devkitpro/devkitPPC/lib/gcc/powerpc-eabi/8.2.0/../../../../powerpc-eabi/lib/libsysbase.a(dirent.o) (strnlen)
/opt/devkitpro/devkitPPC/lib/gcc/powerpc-eabi/8.2.0/../../../../powerpc-eabi/lib/libc.a(lib_a-strtol.o)
                              /opt/devkitpro/devkitPPC/lib/gcc/powerpc-eabi/8.2.0/../../../../powerpc-eabi/lib/libc.a(lib_a-locale.o) (strtol)
/opt/devkitpro/devkitPPC/lib/gcc/powerpc-eabi/8.2.0/../../../../powerpc-eabi/lib/libc.a(lib_a-sysclose.o)
                              /opt/devkitpro/wups/lib/libwups.a(fs_function_wrapper.o) (close)
/opt/devkitpro/devkitPPC/lib/gcc/powerpc-eabi/8.2.0/../../../../powerpc-eabi/lib/libc.a(lib_a-sysfstat.o)
                              /opt/devkitpro/wups/lib/libwups.a(fs_function_wrapper.o) (fstat)
/opt/devkitpro/devkitPPC/lib/gcc/powerpc-eabi/8.2.0/../../../../powerpc-eabi/lib/libc.a(lib_a-syslseek.o)
                              /opt/devkitpro/wups/lib/libwups.a(fs_function_wrapper.o) (lseek)
/opt/devkitpro/devkitPPC/lib/gcc/powerpc-eabi/8.2.0/../../../../powerpc-eabi/lib/libc.a(lib_a-sysopen.o)
                              /opt/devkitpro/wups/lib/libwups.a(fs_function_wrapper.o) (open)
/opt/devkitpro/devkitPPC/lib/gcc/powerpc-eabi/8.2.0/../../../../powerpc-eabi/lib/libc.a(lib_a-sysread.o)
                              /opt/devkitpro/wups/lib/libwups.a(fs_function_wrapper.o) (read)
/opt/devkitpro/devkitPPC/lib/gcc/powerpc-eabi/8.2.0/../../../../powerpc-eabi/lib/libc.a(lib_a-sysstat.o)
                              /opt/devkitpro/wups/lib/libwups.a(fs_function_wrapper.o) (stat)
/opt/devkitpro/devkitPPC/lib/gcc/powerpc-eabi/8.2.0/../../../../powerpc-eabi/lib/libc.a(lib_a-syswrite.o)
                              /opt/devkitpro/wups/lib/libwups.a(fs_function_wrapper.o) (write)
/opt/devkitpro/devkitPPC/lib/gcc/powerpc-eabi/8.2.0/../../../../powerpc-eabi/lib/libc.a(lib_a-vsprintf.o)
                              /opt/wut/lib/libutilswut.a(logger.c.obj) (vsprintf)
/opt/devkitpro/devkitPPC/lib/gcc/powerpc-eabi/8.2.0/../../../../powerpc-eabi/lib/libc.a(lib_a-wctomb_r.o)
                              /opt/devkitpro/devkitPPC/lib/gcc/powerpc-eabi/8.2.0/../../../../powerpc-eabi/lib/libc.a(lib_a-locale.o) (__ascii_wctomb)
/opt/devkitpro/devkitPPC/lib/gcc/powerpc-eabi/8.2.0/../../../../powerpc-eabi/lib/libc.a(lib_a-ctype_.o)
                              /opt/devkitpro/devkitPPC/lib/gcc/powerpc-eabi/8.2.0/../../../../powerpc-eabi/lib/libc.a(lib_a-locale.o) (__set_ctype)
/opt/devkitpro/devkitPPC/lib/gcc/powerpc-eabi/8.2.0/../../../../powerpc-eabi/lib/libc.a(lib_a-getenv_r.o)
                              /opt/devkitpro/devkitPPC/lib/gcc/powerpc-eabi/8.2.0/../../../../powerpc-eabi/lib/libc.a(lib_a-locale.o) (_getenv_r)
/opt/devkitpro/devkitPPC/lib/gcc/powerpc-eabi/8.2.0/../../../../powerpc-eabi/lib/libc.a(lib_a-svfprintf.o)
                              /opt/devkitpro/devkitPPC/lib/gcc/powerpc-eabi/8.2.0/../../../../powerpc-eabi/lib/libc.a(lib_a-vsprintf.o) (_svfprintf_r)
/opt/devkitpro/devkitPPC/lib/gcc/powerpc-eabi/8.2.0/../../../../powerpc-eabi/lib/libc.a(lib_a-wcrtomb.o)
                              /opt/devkitpro/devkitPPC/lib/gcc/powerpc-eabi/8.2.0/../../../../powerpc-eabi/lib/libc.a(lib_a-svfprintf.o) (_wcrtomb_r)
/opt/devkitpro/devkitPPC/lib/gcc/powerpc-eabi/8.2.0/../../../../powerpc-eabi/lib/libc.a(lib_a-wcsrtombs.o)
                              /opt/devkitpro/devkitPPC/lib/gcc/powerpc-eabi/8.2.0/../../../../powerpc-eabi/lib/libc.a(lib_a-svfprintf.o) (_wcsrtombs_r)
/opt/devkitpro/devkitPPC/lib/gcc/powerpc-eabi/8.2.0/../../../../powerpc-eabi/lib/libc.a(lib_a-dtoa.o)
                              /opt/devkitpro/devkitPPC/lib/gcc/powerpc-eabi/8.2.0/../../../../powerpc-eabi/lib/libc.a(lib_a-svfprintf.o) (_dtoa_r)
/opt/devkitpro/devkitPPC/lib/gcc/powerpc-eabi/8.2.0/../../../../powerpc-eabi/lib/libc.a(lib_a-environ.o)
                              /opt/devkitpro/devkitPPC/lib/gcc/powerpc-eabi/8.2.0/../../../../powerpc-eabi/lib/libc.a(lib_a-getenv_r.o) (environ)
/opt/devkitpro/devkitPPC/lib/gcc/powerpc-eabi/8.2.0/../../../../powerpc-eabi/lib/libc.a(lib_a-envlock.o)
                              /opt/devkitpro/devkitPPC/lib/gcc/powerpc-eabi/8.2.0/../../../../powerpc-eabi/lib/libc.a(lib_a-getenv_r.o) (__env_lock)
/opt/devkitpro/devkitPPC/lib/gcc/powerpc-eabi/8.2.0/../../../../powerpc-eabi/lib/libc.a(lib_a-localeconv.o)
                              /opt/devkitpro/devkitPPC/lib/gcc/powerpc-eabi/8.2.0/../../../../powerpc-eabi/lib/libc.a(lib_a-svfprintf.o) (_localeconv_r)
/opt/devkitpro/devkitPPC/lib/gcc/powerpc-eabi/8.2.0/../../../../powerpc-eabi/lib/libc.a(lib_a-memchr.o)
                              /opt/devkitpro/devkitPPC/lib/gcc/powerpc-eabi/8.2.0/../../../../powerpc-eabi/lib/libc.a(lib_a-svfprintf.o) (memchr)
/opt/devkitpro/devkitPPC/lib/gcc/powerpc-eabi/8.2.0/../../../../powerpc-eabi/lib/libc.a(lib_a-mprec.o)
                              /opt/devkitpro/devkitPPC/lib/gcc/powerpc-eabi/8.2.0/../../../../powerpc-eabi/lib/libc.a(lib_a-dtoa.o) (_Balloc)
/opt/devkitpro/devkitPPC/lib/gcc/powerpc-eabi/8.2.0/../../../../powerpc-eabi/lib/libc.a(lib_a-svfiprintf.o)
                              /opt/devkitpro/devkitPPC/lib/gcc/powerpc-eabi/8.2.0/../../../../powerpc-eabi/lib/libc.a(lib_a-svfprintf.o) (__ssprint_r)
/opt/devkitpro/devkitPPC/lib/gcc/powerpc-eabi/8.2.0/../../../../powerpc-eabi/lib/libc.a(lib_a-wcsnrtombs.o)
                              /opt/devkitpro/devkitPPC/lib/gcc/powerpc-eabi/8.2.0/../../../../powerpc-eabi/lib/libc.a(lib_a-wcsrtombs.o) (_wcsnrtombs_r)
/opt/devkitpro/devkitPPC/lib/gcc/powerpc-eabi/8.2.0/../../../../powerpc-eabi/lib/libc.a(lib_a-memmove.o)
                              /opt/devkitpro/devkitPPC/lib/gcc/powerpc-eabi/8.2.0/../../../../powerpc-eabi/lib/libc.a(lib_a-svfiprintf.o) (memmove)
/opt/devkitpro/devkitPPC/lib/gcc/powerpc-eabi/8.2.0/../../../../powerpc-eabi/lib/libsysbase.a(close.o)
                              /opt/devkitpro/devkitPPC/lib/gcc/powerpc-eabi/8.2.0/../../../../powerpc-eabi/lib/libc.a(lib_a-sysclose.o) (_close_r)
/opt/devkitpro/devkitPPC/lib/gcc/powerpc-eabi/8.2.0/../../../../powerpc-eabi/lib/libsysbase.a(fstat.o)
                              /opt/devkitpro/devkitPPC/lib/gcc/powerpc-eabi/8.2.0/../../../../powerpc-eabi/lib/libc.a(lib_a-sysfstat.o) (_fstat_r)
/opt/devkitpro/devkitPPC/lib/gcc/powerpc-eabi/8.2.0/../../../../powerpc-eabi/lib/libsysbase.a(lseek.o)
                              /opt/devkitpro/devkitPPC/lib/gcc/powerpc-eabi/8.2.0/../../../../powerpc-eabi/lib/libc.a(lib_a-syslseek.o) (_lseek_r)
/opt/devkitpro/devkitPPC/lib/gcc/powerpc-eabi/8.2.0/../../../../powerpc-eabi/lib/libsysbase.a(open.o)
                              /opt/devkitpro/devkitPPC/lib/gcc/powerpc-eabi/8.2.0/../../../../powerpc-eabi/lib/libc.a(lib_a-sysopen.o) (_open_r)
/opt/devkitpro/devkitPPC/lib/gcc/powerpc-eabi/8.2.0/../../../../powerpc-eabi/lib/libsysbase.a(read.o)
                              /opt/devkitpro/devkitPPC/lib/gcc/powerpc-eabi/8.2.0/../../../../powerpc-eabi/lib/libc.a(lib_a-sysread.o) (_read_r)
/opt/devkitpro/devkitPPC/lib/gcc/powerpc-eabi/8.2.0/../../../../powerpc-eabi/lib/libsysbase.a(stat.o)
                              /opt/devkitpro/devkitPPC/lib/gcc/powerpc-eabi/8.2.0/../../../../powerpc-eabi/lib/libc.a(lib_a-sysstat.o) (_stat_r)
/opt/devkitpro/devkitPPC/lib/gcc/powerpc-eabi/8.2.0/../../../../powerpc-eabi/lib/libsysbase.a(write.o)
                              /opt/devkitpro/devkitPPC/lib/gcc/powerpc-eabi/8.2.0/../../../../powerpc-eabi/lib/libc.a(lib_a-syswrite.o) (_write_r)
/opt/devkitpro/devkitPPC/lib/gcc/powerpc-eabi/8.2.0/../../../../powerpc-eabi/lib/libsysbase.a(handle_manager.o)
                              /opt/devkitpro/devkitPPC/lib/gcc/powerpc-eabi/8.2.0/../../../../powerpc-eabi/lib/libsysbase.a(close.o) (__release_handle)
/opt/devkitpro/devkitPPC/lib/gcc/powerpc-eabi/8.2.0/libgcc.a(_umoddi3.o)
                              /opt/devkitpro/devkitPPC/lib/gcc/powerpc-eabi/8.2.0/../../../../powerpc-eabi/lib/libc.a(lib_a-svfprintf.o) (__umoddi3)

Discarded input sections

 .text          0x0000000000000000        0x0 /opt/devkitpro/devkitPPC/lib/gcc/powerpc-eabi/8.2.0/ecrti.o
 .data          0x0000000000000000        0x0 /opt/devkitpro/devkitPPC/lib/gcc/powerpc-eabi/8.2.0/ecrti.o
 .bss           0x0000000000000000        0x0 /opt/devkitpro/devkitPPC/lib/gcc/powerpc-eabi/8.2.0/ecrti.o
 .comment       0x0000000000000000        0xe /opt/devkitpro/devkitPPC/lib/gcc/powerpc-eabi/8.2.0/ecrti.o
 .got           0x0000000000000000        0x0 /opt/devkitpro/devkitPPC/lib/gcc/powerpc-eabi/8.2.0/ecrti.o
 .got1          0x0000000000000000        0x0 /opt/devkitpro/devkitPPC/lib/gcc/powerpc-eabi/8.2.0/ecrti.o
 .got2          0x0000000000000000        0x0 /opt/devkitpro/devkitPPC/lib/gcc/powerpc-eabi/8.2.0/ecrti.o
 .fixup         0x0000000000000000        0x0 /opt/devkitpro/devkitPPC/lib/gcc/powerpc-eabi/8.2.0/ecrti.o
 .ctors         0x0000000000000000        0x0 /opt/devkitpro/devkitPPC/lib/gcc/powerpc-eabi/8.2.0/ecrti.o
 .dtors         0x0000000000000000        0x0 /opt/devkitpro/devkitPPC/lib/gcc/powerpc-eabi/8.2.0/ecrti.o
 .sdata         0x0000000000000000        0x0 /opt/devkitpro/devkitPPC/lib/gcc/powerpc-eabi/8.2.0/ecrti.o
 .sbss          0x0000000000000000        0x0 /opt/devkitpro/devkitPPC/lib/gcc/powerpc-eabi/8.2.0/ecrti.o
 .sdata2        0x0000000000000000        0x0 /opt/devkitpro/devkitPPC/lib/gcc/powerpc-eabi/8.2.0/ecrti.o
 .sbss2         0x0000000000000000        0x0 /opt/devkitpro/devkitPPC/lib/gcc/powerpc-eabi/8.2.0/ecrti.o
 .gcc_except_table
                0x0000000000000000        0x0 /opt/devkitpro/devkitPPC/lib/gcc/powerpc-eabi/8.2.0/ecrti.o
 .eh_frame      0x0000000000000000        0x0 /opt/devkitpro/devkitPPC/lib/gcc/powerpc-eabi/8.2.0/ecrti.o
 .init          0x0000000000000000        0xc /opt/devkitpro/devkitPPC/lib/gcc/powerpc-eabi/8.2.0/ecrti.o
 .fini          0x0000000000000000        0xc /opt/devkitpro/devkitPPC/lib/gcc/powerpc-eabi/8.2.0/ecrti.o
 .text          0x0000000000000000       0x20 /opt/devkitpro/devkitPPC/lib/gcc/powerpc-eabi/8.2.0/crtbegin.o
 .data          0x0000000000000000        0x0 /opt/devkitpro/devkitPPC/lib/gcc/powerpc-eabi/8.2.0/crtbegin.o
 .bss           0x0000000000000000        0x0 /opt/devkitpro/devkitPPC/lib/gcc/powerpc-eabi/8.2.0/crtbegin.o
 .ctors         0x0000000000000000        0x4 /opt/devkitpro/devkitPPC/lib/gcc/powerpc-eabi/8.2.0/crtbegin.o
 .dtors         0x0000000000000000        0x4 /opt/devkitpro/devkitPPC/lib/gcc/powerpc-eabi/8.2.0/crtbegin.o
 .eh_frame      0x0000000000000000        0x0 /opt/devkitpro/devkitPPC/lib/gcc/powerpc-eabi/8.2.0/crtbegin.o
 .tm_clone_table
                0x0000000000000000        0x0 /opt/devkitpro/devkitPPC/lib/gcc/powerpc-eabi/8.2.0/crtbegin.o
 .text.deregister_tm_clones
                0x0000000000000000       0x30 /opt/devkitpro/devkitPPC/lib/gcc/powerpc-eabi/8.2.0/crtbegin.o
 .text.register_tm_clones
                0x0000000000000000       0x3c /opt/devkitpro/devkitPPC/lib/gcc/powerpc-eabi/8.2.0/crtbegin.o
 .data.__dso_handle
                0x0000000000000000        0x4 /opt/devkitpro/devkitPPC/lib/gcc/powerpc-eabi/8.2.0/crtbegin.o
 .text.__do_global_dtors_aux
                0x0000000000000000       0xd0 /opt/devkitpro/devkitPPC/lib/gcc/powerpc-eabi/8.2.0/crtbegin.o
 .text.call___do_global_dtors_aux
                0x0000000000000000        0xc /opt/devkitpro/devkitPPC/lib/gcc/powerpc-eabi/8.2.0/crtbegin.o
 .fini          0x0000000000000000        0x4 /opt/devkitpro/devkitPPC/lib/gcc/powerpc-eabi/8.2.0/crtbegin.o
 .text.frame_dummy
                0x0000000000000000       0x44 /opt/devkitpro/devkitPPC/lib/gcc/powerpc-eabi/8.2.0/crtbegin.o
 .text.call_frame_dummy
                0x0000000000000000        0xc /opt/devkitpro/devkitPPC/lib/gcc/powerpc-eabi/8.2.0/crtbegin.o
 .init          0x0000000000000000        0x4 /opt/devkitpro/devkitPPC/lib/gcc/powerpc-eabi/8.2.0/crtbegin.o
 .bss.completed.8685
                0x0000000000000000        0x1 /opt/devkitpro/devkitPPC/lib/gcc/powerpc-eabi/8.2.0/crtbegin.o
 .bss.dtor_idx.8687
                0x0000000000000000        0x4 /opt/devkitpro/devkitPPC/lib/gcc/powerpc-eabi/8.2.0/crtbegin.o
 .bss.object.8700
                0x0000000000000000       0x18 /opt/devkitpro/devkitPPC/lib/gcc/powerpc-eabi/8.2.0/crtbegin.o
 .comment       0x0000000000000000       0x23 /opt/devkitpro/devkitPPC/lib/gcc/powerpc-eabi/8.2.0/crtbegin.o
 .group         0x0000000000000000       0x10 main.o
 .text          0x0000000000000000        0x0 main.o
 .bss           0x0000000000000000        0x0 main.o
 .comment       0x0000000000000000       0x23 main.o
 .eh_frame      0x0000000000000000      0x13c main.o
 .gnu.attributes
                0x0000000000000000       0x10 main.o
 .group         0x0000000000000000       0x14 Texture2DShader.o
 .group         0x0000000000000000       0x14 Texture2DShader.o
 .group         0x0000000000000000       0x14 Texture2DShader.o
 .group         0x0000000000000000        0xc Texture2DShader.o
 .group         0x0000000000000000        0xc Texture2DShader.o
 .group         0x0000000000000000        0xc Texture2DShader.o
 .group         0x0000000000000000        0xc Texture2DShader.o
 .group         0x0000000000000000        0x8 Texture2DShader.o
 .group         0x0000000000000000        0xc Texture2DShader.o
 .group         0x0000000000000000        0x8 Texture2DShader.o
 .group         0x0000000000000000        0xc Texture2DShader.o
 .group         0x0000000000000000        0x8 Texture2DShader.o
 .group         0x0000000000000000        0xc Texture2DShader.o
 .group         0x0000000000000000        0x8 Texture2DShader.o
 .group         0x0000000000000000        0xc Texture2DShader.o
 .group         0x0000000000000000        0x8 Texture2DShader.o
 .group         0x0000000000000000        0xc Texture2DShader.o
 .group         0x0000000000000000        0xc Texture2DShader.o
 .group         0x0000000000000000        0xc Texture2DShader.o
 .group         0x0000000000000000        0xc Texture2DShader.o
 .group         0x0000000000000000        0xc Texture2DShader.o
 .text          0x0000000000000000        0x0 Texture2DShader.o
 .data          0x0000000000000000        0x0 Texture2DShader.o
 .bss           0x0000000000000000        0x0 Texture2DShader.o
 .comment       0x0000000000000000       0x23 Texture2DShader.o
 .eh_frame      0x0000000000000000      0x264 Texture2DShader.o
 .data          0x0000000000000000        0x0 /opt/wut/lib/libwutmalloc.a(wut_malloc.c.obj)
 .bss           0x0000000000000000        0x0 /opt/wut/lib/libwutmalloc.a(wut_malloc.c.obj)
 .sdata         0x0000000000000000        0x4 /opt/wut/lib/libwutmalloc.a(wut_malloc.c.obj)
 .comment       0x0000000000000000       0x23 /opt/wut/lib/libwutmalloc.a(wut_malloc.c.obj)
 .eh_frame      0x0000000000000000      0x1e8 /opt/wut/lib/libwutmalloc.a(wut_malloc.c.obj)
 .bss           0x0000000000000000        0x0 /opt/devkitpro/wups/lib/libwups.a(fs_function_wrapper.o)
 .comment       0x0000000000000000       0x23 /opt/devkitpro/wups/lib/libwups.a(fs_function_wrapper.o)
 .eh_frame      0x0000000000000000      0x104 /opt/devkitpro/wups/lib/libwups.a(fs_function_wrapper.o)
 .bss           0x0000000000000000        0x0 /opt/wut/lib/libutilswut.a(logger.c.obj)
 .comment       0x0000000000000000       0x23 /opt/wut/lib/libutilswut.a(logger.c.obj)
 .eh_frame      0x0000000000000000       0xc0 /opt/wut/lib/libutilswut.a(logger.c.obj)
 .gnu.attributes
                0x0000000000000000       0x10 /opt/wut/lib/libutilswut.a(logger.c.obj)
 .text          0x0000000000000000        0x0 /opt/wut/lib/libcoreinit.a(coreinit.s.obj)
 .data          0x0000000000000000        0x0 /opt/wut/lib/libcoreinit.a(coreinit.s.obj)
 .bss           0x0000000000000000        0x0 /opt/wut/lib/libcoreinit.a(coreinit.s.obj)
 .text          0x0000000000000000        0x0 /opt/wut/lib/libnsysnet.a(nsysnet.s.obj)
 .data          0x0000000000000000        0x0 /opt/wut/lib/libnsysnet.a(nsysnet.s.obj)
 .bss           0x0000000000000000        0x0 /opt/wut/lib/libnsysnet.a(nsysnet.s.obj)
 .text          0x0000000000000000        0x0 /opt/wut/lib/libgx2.a(gx2.s.obj)
 .data          0x0000000000000000        0x0 /opt/wut/lib/libgx2.a(gx2.s.obj)
 .bss           0x0000000000000000        0x0 /opt/wut/lib/libgx2.a(gx2.s.obj)
 .text          0x0000000000000000        0x0 /opt/devkitpro/devkitPPC/lib/gcc/powerpc-eabi/8.2.0/../../../../powerpc-eabi/lib/libstdc++.a(new_opv.o)
 .data          0x0000000000000000        0x0 /opt/devkitpro/devkitPPC/lib/gcc/powerpc-eabi/8.2.0/../../../../powerpc-eabi/lib/libstdc++.a(new_opv.o)
 .bss           0x0000000000000000        0x0 /opt/devkitpro/devkitPPC/lib/gcc/powerpc-eabi/8.2.0/../../../../powerpc-eabi/lib/libstdc++.a(new_opv.o)
 .comment       0x0000000000000000       0x23 /opt/devkitpro/devkitPPC/lib/gcc/powerpc-eabi/8.2.0/../../../../powerpc-eabi/lib/libstdc++.a(new_opv.o)
 .eh_frame      0x0000000000000000       0x28 /opt/devkitpro/devkitPPC/lib/gcc/powerpc-eabi/8.2.0/../../../../powerpc-eabi/lib/libstdc++.a(new_opv.o)
 .text          0x0000000000000000        0x0 /opt/devkitpro/devkitPPC/lib/gcc/powerpc-eabi/8.2.0/../../../../powerpc-eabi/lib/libstdc++.a(new_op.o)
 .data          0x0000000000000000        0x0 /opt/devkitpro/devkitPPC/lib/gcc/powerpc-eabi/8.2.0/../../../../powerpc-eabi/lib/libstdc++.a(new_op.o)
 .bss           0x0000000000000000        0x0 /opt/devkitpro/devkitPPC/lib/gcc/powerpc-eabi/8.2.0/../../../../powerpc-eabi/lib/libstdc++.a(new_op.o)
 .comment       0x0000000000000000       0x23 /opt/devkitpro/devkitPPC/lib/gcc/powerpc-eabi/8.2.0/../../../../powerpc-eabi/lib/libstdc++.a(new_op.o)
 .eh_frame      0x0000000000000000       0x3c /opt/devkitpro/devkitPPC/lib/gcc/powerpc-eabi/8.2.0/../../../../powerpc-eabi/lib/libstdc++.a(new_op.o)
 .group         0x0000000000000000        0x8 /opt/devkitpro/devkitPPC/lib/gcc/powerpc-eabi/8.2.0/../../../../powerpc-eabi/lib/libstdc++.a(bad_alloc.o)
 .group         0x0000000000000000        0xc /opt/devkitpro/devkitPPC/lib/gcc/powerpc-eabi/8.2.0/../../../../powerpc-eabi/lib/libstdc++.a(bad_alloc.o)
 .group         0x0000000000000000        0xc /opt/devkitpro/devkitPPC/lib/gcc/powerpc-eabi/8.2.0/../../../../powerpc-eabi/lib/libstdc++.a(bad_alloc.o)
 .text          0x0000000000000000        0x0 /opt/devkitpro/devkitPPC/lib/gcc/powerpc-eabi/8.2.0/../../../../powerpc-eabi/lib/libstdc++.a(bad_alloc.o)
 .data          0x0000000000000000        0x0 /opt/devkitpro/devkitPPC/lib/gcc/powerpc-eabi/8.2.0/../../../../powerpc-eabi/lib/libstdc++.a(bad_alloc.o)
 .bss           0x0000000000000000        0x0 /opt/devkitpro/devkitPPC/lib/gcc/powerpc-eabi/8.2.0/../../../../powerpc-eabi/lib/libstdc++.a(bad_alloc.o)
 .comment       0x0000000000000000       0x23 /opt/devkitpro/devkitPPC/lib/gcc/powerpc-eabi/8.2.0/../../../../powerpc-eabi/lib/libstdc++.a(bad_alloc.o)
 .eh_frame      0x0000000000000000       0x64 /opt/devkitpro/devkitPPC/lib/gcc/powerpc-eabi/8.2.0/../../../../powerpc-eabi/lib/libstdc++.a(bad_alloc.o)
 .text          0x0000000000000000        0x0 /opt/devkitpro/devkitPPC/lib/gcc/powerpc-eabi/8.2.0/../../../../powerpc-eabi/lib/libstdc++.a(eh_personality.o)
 .data          0x0000000000000000        0x0 /opt/devkitpro/devkitPPC/lib/gcc/powerpc-eabi/8.2.0/../../../../powerpc-eabi/lib/libstdc++.a(eh_personality.o)
 .bss           0x0000000000000000        0x0 /opt/devkitpro/devkitPPC/lib/gcc/powerpc-eabi/8.2.0/../../../../powerpc-eabi/lib/libstdc++.a(eh_personality.o)
 .comment       0x0000000000000000       0x23 /opt/devkitpro/devkitPPC/lib/gcc/powerpc-eabi/8.2.0/../../../../powerpc-eabi/lib/libstdc++.a(eh_personality.o)
 .eh_frame      0x0000000000000000      0x2f0 /opt/devkitpro/devkitPPC/lib/gcc/powerpc-eabi/8.2.0/../../../../powerpc-eabi/lib/libstdc++.a(eh_personality.o)
 .group         0x0000000000000000        0x8 /opt/devkitpro/devkitPPC/lib/gcc/powerpc-eabi/8.2.0/../../../../powerpc-eabi/lib/libstdc++.a(class_type_info.o)
 .group         0x0000000000000000        0xc /opt/devkitpro/devkitPPC/lib/gcc/powerpc-eabi/8.2.0/../../../../powerpc-eabi/lib/libstdc++.a(class_type_info.o)
 .group         0x0000000000000000        0xc /opt/devkitpro/devkitPPC/lib/gcc/powerpc-eabi/8.2.0/../../../../powerpc-eabi/lib/libstdc++.a(class_type_info.o)
 .text          0x0000000000000000        0x0 /opt/devkitpro/devkitPPC/lib/gcc/powerpc-eabi/8.2.0/../../../../powerpc-eabi/lib/libstdc++.a(class_type_info.o)
 .data          0x0000000000000000        0x0 /opt/devkitpro/devkitPPC/lib/gcc/powerpc-eabi/8.2.0/../../../../powerpc-eabi/lib/libstdc++.a(class_type_info.o)
 .bss           0x0000000000000000        0x0 /opt/devkitpro/devkitPPC/lib/gcc/powerpc-eabi/8.2.0/../../../../powerpc-eabi/lib/libstdc++.a(class_type_info.o)
 .comment       0x0000000000000000       0x23 /opt/devkitpro/devkitPPC/lib/gcc/powerpc-eabi/8.2.0/../../../../powerpc-eabi/lib/libstdc++.a(class_type_info.o)
 .eh_frame      0x0000000000000000      0x160 /opt/devkitpro/devkitPPC/lib/gcc/powerpc-eabi/8.2.0/../../../../powerpc-eabi/lib/libstdc++.a(class_type_info.o)
 .text          0x0000000000000000        0x0 /opt/devkitpro/devkitPPC/lib/gcc/powerpc-eabi/8.2.0/../../../../powerpc-eabi/lib/libstdc++.a(del_opv.o)
 .data          0x0000000000000000        0x0 /opt/devkitpro/devkitPPC/lib/gcc/powerpc-eabi/8.2.0/../../../../powerpc-eabi/lib/libstdc++.a(del_opv.o)
 .bss           0x0000000000000000        0x0 /opt/devkitpro/devkitPPC/lib/gcc/powerpc-eabi/8.2.0/../../../../powerpc-eabi/lib/libstdc++.a(del_opv.o)
 .comment       0x0000000000000000       0x23 /opt/devkitpro/devkitPPC/lib/gcc/powerpc-eabi/8.2.0/../../../../powerpc-eabi/lib/libstdc++.a(del_opv.o)
 .eh_frame      0x0000000000000000       0x28 /opt/devkitpro/devkitPPC/lib/gcc/powerpc-eabi/8.2.0/../../../../powerpc-eabi/lib/libstdc++.a(del_opv.o)
 .text          0x0000000000000000        0x0 /opt/devkitpro/devkitPPC/lib/gcc/powerpc-eabi/8.2.0/../../../../powerpc-eabi/lib/libstdc++.a(new_handler.o)
 .data          0x0000000000000000        0x0 /opt/devkitpro/devkitPPC/lib/gcc/powerpc-eabi/8.2.0/../../../../powerpc-eabi/lib/libstdc++.a(new_handler.o)
 .bss           0x0000000000000000        0x0 /opt/devkitpro/devkitPPC/lib/gcc/powerpc-eabi/8.2.0/../../../../powerpc-eabi/lib/libstdc++.a(new_handler.o)
 .text._ZSt15set_new_handlerPFvvE
                0x0000000000000000       0x24 /opt/devkitpro/devkitPPC/lib/gcc/powerpc-eabi/8.2.0/../../../../powerpc-eabi/lib/libstdc++.a(new_handler.o)
 .sdata._ZSt7nothrow
                0x0000000000000000        0x1 /opt/devkitpro/devkitPPC/lib/gcc/powerpc-eabi/8.2.0/../../../../powerpc-eabi/lib/libstdc++.a(new_handler.o)
 .comment       0x0000000000000000       0x23 /opt/devkitpro/devkitPPC/lib/gcc/powerpc-eabi/8.2.0/../../../../powerpc-eabi/lib/libstdc++.a(new_handler.o)
 .eh_frame      0x0000000000000000       0x3c /opt/devkitpro/devkitPPC/lib/gcc/powerpc-eabi/8.2.0/../../../../powerpc-eabi/lib/libstdc++.a(new_handler.o)
 .group         0x0000000000000000        0x8 /opt/devkitpro/devkitPPC/lib/gcc/powerpc-eabi/8.2.0/../../../../powerpc-eabi/lib/libstdc++.a(eh_exception.o)
 .group         0x0000000000000000        0xc /opt/devkitpro/devkitPPC/lib/gcc/powerpc-eabi/8.2.0/../../../../powerpc-eabi/lib/libstdc++.a(eh_exception.o)
 .group         0x0000000000000000        0x8 /opt/devkitpro/devkitPPC/lib/gcc/powerpc-eabi/8.2.0/../../../../powerpc-eabi/lib/libstdc++.a(eh_exception.o)
 .group         0x0000000000000000        0xc /opt/devkitpro/devkitPPC/lib/gcc/powerpc-eabi/8.2.0/../../../../powerpc-eabi/lib/libstdc++.a(eh_exception.o)
 .group         0x0000000000000000        0x8 /opt/devkitpro/devkitPPC/lib/gcc/powerpc-eabi/8.2.0/../../../../powerpc-eabi/lib/libstdc++.a(eh_exception.o)
 .group         0x0000000000000000        0xc /opt/devkitpro/devkitPPC/lib/gcc/powerpc-eabi/8.2.0/../../../../powerpc-eabi/lib/libstdc++.a(eh_exception.o)
 .group         0x0000000000000000        0x8 /opt/devkitpro/devkitPPC/lib/gcc/powerpc-eabi/8.2.0/../../../../powerpc-eabi/lib/libstdc++.a(eh_exception.o)
 .group         0x0000000000000000        0xc /opt/devkitpro/devkitPPC/lib/gcc/powerpc-eabi/8.2.0/../../../../powerpc-eabi/lib/libstdc++.a(eh_exception.o)
 .group         0x0000000000000000        0xc /opt/devkitpro/devkitPPC/lib/gcc/powerpc-eabi/8.2.0/../../../../powerpc-eabi/lib/libstdc++.a(eh_exception.o)
 .group         0x0000000000000000        0xc /opt/devkitpro/devkitPPC/lib/gcc/powerpc-eabi/8.2.0/../../../../powerpc-eabi/lib/libstdc++.a(eh_exception.o)
 .group         0x0000000000000000        0xc /opt/devkitpro/devkitPPC/lib/gcc/powerpc-eabi/8.2.0/../../../../powerpc-eabi/lib/libstdc++.a(eh_exception.o)
 .group         0x0000000000000000        0xc /opt/devkitpro/devkitPPC/lib/gcc/powerpc-eabi/8.2.0/../../../../powerpc-eabi/lib/libstdc++.a(eh_exception.o)
 .text          0x0000000000000000        0x0 /opt/devkitpro/devkitPPC/lib/gcc/powerpc-eabi/8.2.0/../../../../powerpc-eabi/lib/libstdc++.a(eh_exception.o)
 .data          0x0000000000000000        0x0 /opt/devkitpro/devkitPPC/lib/gcc/powerpc-eabi/8.2.0/../../../../powerpc-eabi/lib/libstdc++.a(eh_exception.o)
 .bss           0x0000000000000000        0x0 /opt/devkitpro/devkitPPC/lib/gcc/powerpc-eabi/8.2.0/../../../../powerpc-eabi/lib/libstdc++.a(eh_exception.o)
 .text._ZNKSt9exception4whatEv
                0x0000000000000000        0xc /opt/devkitpro/devkitPPC/lib/gcc/powerpc-eabi/8.2.0/../../../../powerpc-eabi/lib/libstdc++.a(eh_exception.o)
 .text._ZNSt9exceptionD0Ev
                0x0000000000000000        0x8 /opt/devkitpro/devkitPPC/lib/gcc/powerpc-eabi/8.2.0/../../../../powerpc-eabi/lib/libstdc++.a(eh_exception.o)
 .text._ZN10__cxxabiv115__forced_unwindD2Ev
                0x0000000000000000        0x4 /opt/devkitpro/devkitPPC/lib/gcc/powerpc-eabi/8.2.0/../../../../powerpc-eabi/lib/libstdc++.a(eh_exception.o)
 .text._ZN10__cxxabiv115__forced_unwindD0Ev
                0x0000000000000000        0x8 /opt/devkitpro/devkitPPC/lib/gcc/powerpc-eabi/8.2.0/../../../../powerpc-eabi/lib/libstdc++.a(eh_exception.o)
 .text._ZN10__cxxabiv119__foreign_exceptionD2Ev
                0x0000000000000000        0x4 /opt/devkitpro/devkitPPC/lib/gcc/powerpc-eabi/8.2.0/../../../../powerpc-eabi/lib/libstdc++.a(eh_exception.o)
 .text._ZN10__cxxabiv119__foreign_exceptionD0Ev
                0x0000000000000000        0x8 /opt/devkitpro/devkitPPC/lib/gcc/powerpc-eabi/8.2.0/../../../../powerpc-eabi/lib/libstdc++.a(eh_exception.o)
 .text._ZGTtNKSt9exceptionD1Ev
                0x0000000000000000        0x4 /opt/devkitpro/devkitPPC/lib/gcc/powerpc-eabi/8.2.0/../../../../powerpc-eabi/lib/libstdc++.a(eh_exception.o)
 .text._ZGTtNKSt13bad_exceptionD1Ev
                0x0000000000000000        0x4 /opt/devkitpro/devkitPPC/lib/gcc/powerpc-eabi/8.2.0/../../../../powerpc-eabi/lib/libstdc++.a(eh_exception.o)
 .rodata._ZTVSt9exception
                0x0000000000000000       0x14 /opt/devkitpro/devkitPPC/lib/gcc/powerpc-eabi/8.2.0/../../../../powerpc-eabi/lib/libstdc++.a(eh_exception.o)
 .rodata._ZTVN10__cxxabiv115__forced_unwindE
                0x0000000000000000       0x14 /opt/devkitpro/devkitPPC/lib/gcc/powerpc-eabi/8.2.0/../../../../powerpc-eabi/lib/libstdc++.a(eh_exception.o)
 .rodata._ZTVN10__cxxabiv119__foreign_exceptionE
                0x0000000000000000       0x14 /opt/devkitpro/devkitPPC/lib/gcc/powerpc-eabi/8.2.0/../../../../powerpc-eabi/lib/libstdc++.a(eh_exception.o)
 .rodata._ZNKSt9exception4whatEv.str1.4
                0x0000000000000000        0xf /opt/devkitpro/devkitPPC/lib/gcc/powerpc-eabi/8.2.0/../../../../powerpc-eabi/lib/libstdc++.a(eh_exception.o)
 .comment       0x0000000000000000       0x23 /opt/devkitpro/devkitPPC/lib/gcc/powerpc-eabi/8.2.0/../../../../powerpc-eabi/lib/libstdc++.a(eh_exception.o)
 .eh_frame      0x0000000000000000      0x104 /opt/devkitpro/devkitPPC/lib/gcc/powerpc-eabi/8.2.0/../../../../powerpc-eabi/lib/libstdc++.a(eh_exception.o)
 .text          0x0000000000000000        0x0 /opt/devkitpro/devkitPPC/lib/gcc/powerpc-eabi/8.2.0/../../../../powerpc-eabi/lib/libstdc++.a(del_ops.o)
 .data          0x0000000000000000        0x0 /opt/devkitpro/devkitPPC/lib/gcc/powerpc-eabi/8.2.0/../../../../powerpc-eabi/lib/libstdc++.a(del_ops.o)
 .bss           0x0000000000000000        0x0 /opt/devkitpro/devkitPPC/lib/gcc/powerpc-eabi/8.2.0/../../../../powerpc-eabi/lib/libstdc++.a(del_ops.o)
 .comment       0x0000000000000000       0x23 /opt/devkitpro/devkitPPC/lib/gcc/powerpc-eabi/8.2.0/../../../../powerpc-eabi/lib/libstdc++.a(del_ops.o)
 .eh_frame      0x0000000000000000       0x28 /opt/devkitpro/devkitPPC/lib/gcc/powerpc-eabi/8.2.0/../../../../powerpc-eabi/lib/libstdc++.a(del_ops.o)
 .text          0x0000000000000000        0x0 /opt/devkitpro/devkitPPC/lib/gcc/powerpc-eabi/8.2.0/../../../../powerpc-eabi/lib/libstdc++.a(eh_throw.o)
 .data          0x0000000000000000        0x0 /opt/devkitpro/devkitPPC/lib/gcc/powerpc-eabi/8.2.0/../../../../powerpc-eabi/lib/libstdc++.a(eh_throw.o)
 .bss           0x0000000000000000        0x0 /opt/devkitpro/devkitPPC/lib/gcc/powerpc-eabi/8.2.0/../../../../powerpc-eabi/lib/libstdc++.a(eh_throw.o)
 .text.__cxa_init_primary_exception
                0x0000000000000000       0x70 /opt/devkitpro/devkitPPC/lib/gcc/powerpc-eabi/8.2.0/../../../../powerpc-eabi/lib/libstdc++.a(eh_throw.o)
 .comment       0x0000000000000000       0x23 /opt/devkitpro/devkitPPC/lib/gcc/powerpc-eabi/8.2.0/../../../../powerpc-eabi/lib/libstdc++.a(eh_throw.o)
 .eh_frame      0x0000000000000000       0xb4 /opt/devkitpro/devkitPPC/lib/gcc/powerpc-eabi/8.2.0/../../../../powerpc-eabi/lib/libstdc++.a(eh_throw.o)
 .text          0x0000000000000000        0x0 /opt/devkitpro/devkitPPC/lib/gcc/powerpc-eabi/8.2.0/../../../../powerpc-eabi/lib/libstdc++.a(eh_catch.o)
 .data          0x0000000000000000        0x0 /opt/devkitpro/devkitPPC/lib/gcc/powerpc-eabi/8.2.0/../../../../powerpc-eabi/lib/libstdc++.a(eh_catch.o)
 .bss           0x0000000000000000        0x0 /opt/devkitpro/devkitPPC/lib/gcc/powerpc-eabi/8.2.0/../../../../powerpc-eabi/lib/libstdc++.a(eh_catch.o)
 .text.__cxa_get_exception_ptr
                0x0000000000000000        0x8 /opt/devkitpro/devkitPPC/lib/gcc/powerpc-eabi/8.2.0/../../../../powerpc-eabi/lib/libstdc++.a(eh_catch.o)
 .text._ZSt18uncaught_exceptionv
                0x0000000000000000       0x2c /opt/devkitpro/devkitPPC/lib/gcc/powerpc-eabi/8.2.0/../../../../powerpc-eabi/lib/libstdc++.a(eh_catch.o)
 .text._ZSt19uncaught_exceptionsv
                0x0000000000000000       0x24 /opt/devkitpro/devkitPPC/lib/gcc/powerpc-eabi/8.2.0/../../../../powerpc-eabi/lib/libstdc++.a(eh_catch.o)
 .comment       0x0000000000000000       0x23 /opt/devkitpro/devkitPPC/lib/gcc/powerpc-eabi/8.2.0/../../../../powerpc-eabi/lib/libstdc++.a(eh_catch.o)
 .eh_frame      0x0000000000000000       0xc8 /opt/devkitpro/devkitPPC/lib/gcc/powerpc-eabi/8.2.0/../../../../powerpc-eabi/lib/libstdc++.a(eh_catch.o)
 .group         0x0000000000000000        0xc /opt/devkitpro/devkitPPC/lib/gcc/powerpc-eabi/8.2.0/../../../../powerpc-eabi/lib/libstdc++.a(eh_alloc.o)
 .group         0x0000000000000000        0xc /opt/devkitpro/devkitPPC/lib/gcc/powerpc-eabi/8.2.0/../../../../powerpc-eabi/lib/libstdc++.a(eh_alloc.o)
 .group         0x0000000000000000       0x14 /opt/devkitpro/devkitPPC/lib/gcc/powerpc-eabi/8.2.0/../../../../powerpc-eabi/lib/libstdc++.a(eh_alloc.o)
 .group         0x0000000000000000       0x14 /opt/devkitpro/devkitPPC/lib/gcc/powerpc-eabi/8.2.0/../../../../powerpc-eabi/lib/libstdc++.a(eh_alloc.o)
 .group         0x0000000000000000        0xc /opt/devkitpro/devkitPPC/lib/gcc/powerpc-eabi/8.2.0/../../../../powerpc-eabi/lib/libstdc++.a(eh_alloc.o)
 .group         0x0000000000000000        0xc /opt/devkitpro/devkitPPC/lib/gcc/powerpc-eabi/8.2.0/../../../../powerpc-eabi/lib/libstdc++.a(eh_alloc.o)
 .group         0x0000000000000000        0x8 /opt/devkitpro/devkitPPC/lib/gcc/powerpc-eabi/8.2.0/../../../../powerpc-eabi/lib/libstdc++.a(eh_alloc.o)
 .group         0x0000000000000000        0xc /opt/devkitpro/devkitPPC/lib/gcc/powerpc-eabi/8.2.0/../../../../powerpc-eabi/lib/libstdc++.a(eh_alloc.o)
 .group         0x0000000000000000        0x8 /opt/devkitpro/devkitPPC/lib/gcc/powerpc-eabi/8.2.0/../../../../powerpc-eabi/lib/libstdc++.a(eh_alloc.o)
 .group         0x0000000000000000        0xc /opt/devkitpro/devkitPPC/lib/gcc/powerpc-eabi/8.2.0/../../../../powerpc-eabi/lib/libstdc++.a(eh_alloc.o)
 .group         0x0000000000000000        0xc /opt/devkitpro/devkitPPC/lib/gcc/powerpc-eabi/8.2.0/../../../../powerpc-eabi/lib/libstdc++.a(eh_alloc.o)
 .group         0x0000000000000000        0xc /opt/devkitpro/devkitPPC/lib/gcc/powerpc-eabi/8.2.0/../../../../powerpc-eabi/lib/libstdc++.a(eh_alloc.o)
 .text          0x0000000000000000        0x0 /opt/devkitpro/devkitPPC/lib/gcc/powerpc-eabi/8.2.0/../../../../powerpc-eabi/lib/libstdc++.a(eh_alloc.o)
 .data          0x0000000000000000        0x0 /opt/devkitpro/devkitPPC/lib/gcc/powerpc-eabi/8.2.0/../../../../powerpc-eabi/lib/libstdc++.a(eh_alloc.o)
 .bss           0x0000000000000000        0x0 /opt/devkitpro/devkitPPC/lib/gcc/powerpc-eabi/8.2.0/../../../../powerpc-eabi/lib/libstdc++.a(eh_alloc.o)
 .text._ZN9__gnu_cxx9__freeresEv
                0x0000000000000000       0x44 /opt/devkitpro/devkitPPC/lib/gcc/powerpc-eabi/8.2.0/../../../../powerpc-eabi/lib/libstdc++.a(eh_alloc.o)
 .text.__cxa_allocate_dependent_exception
                0x0000000000000000       0x54 /opt/devkitpro/devkitPPC/lib/gcc/powerpc-eabi/8.2.0/../../../../powerpc-eabi/lib/libstdc++.a(eh_alloc.o)
 .gcc_except_table.__cxa_allocate_dependent_exception
                0x0000000000000000        0x4 /opt/devkitpro/devkitPPC/lib/gcc/powerpc-eabi/8.2.0/../../../../powerpc-eabi/lib/libstdc++.a(eh_alloc.o)
 .text.__cxa_free_dependent_exception
                0x0000000000000000       0x34 /opt/devkitpro/devkitPPC/lib/gcc/powerpc-eabi/8.2.0/../../../../powerpc-eabi/lib/libstdc++.a(eh_alloc.o)
 .gcc_except_table.__cxa_free_dependent_exception
                0x0000000000000000        0x4 /opt/devkitpro/devkitPPC/lib/gcc/powerpc-eabi/8.2.0/../../../../powerpc-eabi/lib/libstdc++.a(eh_alloc.o)
 .text.startup._GLOBAL__sub_I__ZN9__gnu_cxx9__freeresEv
                0x0000000000000000       0x84 /opt/devkitpro/devkitPPC/lib/gcc/powerpc-eabi/8.2.0/../../../../powerpc-eabi/lib/libstdc++.a(eh_alloc.o)
 .ctors         0x0000000000000000        0x4 /opt/devkitpro/devkitPPC/lib/gcc/powerpc-eabi/8.2.0/../../../../powerpc-eabi/lib/libstdc++.a(eh_alloc.o)
 .text.exit._GLOBAL__sub_D__ZN9__gnu_cxx9__freeresEv
                0x0000000000000000       0x40 /opt/devkitpro/devkitPPC/lib/gcc/powerpc-eabi/8.2.0/../../../../powerpc-eabi/lib/libstdc++.a(eh_alloc.o)
 .gcc_except_table._GLOBAL__sub_D__ZN9__gnu_cxx9__freeresEv
                0x0000000000000000        0x4 /opt/devkitpro/devkitPPC/lib/gcc/powerpc-eabi/8.2.0/../../../../powerpc-eabi/lib/libstdc++.a(eh_alloc.o)
 .dtors         0x0000000000000000        0x4 /opt/devkitpro/devkitPPC/lib/gcc/powerpc-eabi/8.2.0/../../../../powerpc-eabi/lib/libstdc++.a(eh_alloc.o)
 .comment       0x0000000000000000       0x23 /opt/devkitpro/devkitPPC/lib/gcc/powerpc-eabi/8.2.0/../../../../powerpc-eabi/lib/libstdc++.a(eh_alloc.o)
 .eh_frame      0x0000000000000000      0x264 /opt/devkitpro/devkitPPC/lib/gcc/powerpc-eabi/8.2.0/../../../../powerpc-eabi/lib/libstdc++.a(eh_alloc.o)
 .text          0x0000000000000000        0x0 /opt/devkitpro/devkitPPC/lib/gcc/powerpc-eabi/8.2.0/../../../../powerpc-eabi/lib/libstdc++.a(del_op.o)
 .data          0x0000000000000000        0x0 /opt/devkitpro/devkitPPC/lib/gcc/powerpc-eabi/8.2.0/../../../../powerpc-eabi/lib/libstdc++.a(del_op.o)
 .bss           0x0000000000000000        0x0 /opt/devkitpro/devkitPPC/lib/gcc/powerpc-eabi/8.2.0/../../../../powerpc-eabi/lib/libstdc++.a(del_op.o)
 .comment       0x0000000000000000       0x23 /opt/devkitpro/devkitPPC/lib/gcc/powerpc-eabi/8.2.0/../../../../powerpc-eabi/lib/libstdc++.a(del_op.o)
 .eh_frame      0x0000000000000000       0x28 /opt/devkitpro/devkitPPC/lib/gcc/powerpc-eabi/8.2.0/../../../../powerpc-eabi/lib/libstdc++.a(del_op.o)
 .group         0x0000000000000000        0x8 /opt/devkitpro/devkitPPC/lib/gcc/powerpc-eabi/8.2.0/../../../../powerpc-eabi/lib/libstdc++.a(si_class_type_info.o)
 .group         0x0000000000000000        0xc /opt/devkitpro/devkitPPC/lib/gcc/powerpc-eabi/8.2.0/../../../../powerpc-eabi/lib/libstdc++.a(si_class_type_info.o)
 .group         0x0000000000000000        0xc /opt/devkitpro/devkitPPC/lib/gcc/powerpc-eabi/8.2.0/../../../../powerpc-eabi/lib/libstdc++.a(si_class_type_info.o)
 .text          0x0000000000000000        0x0 /opt/devkitpro/devkitPPC/lib/gcc/powerpc-eabi/8.2.0/../../../../powerpc-eabi/lib/libstdc++.a(si_class_type_info.o)
 .data          0x0000000000000000        0x0 /opt/devkitpro/devkitPPC/lib/gcc/powerpc-eabi/8.2.0/../../../../powerpc-eabi/lib/libstdc++.a(si_class_type_info.o)
 .bss           0x0000000000000000        0x0 /opt/devkitpro/devkitPPC/lib/gcc/powerpc-eabi/8.2.0/../../../../powerpc-eabi/lib/libstdc++.a(si_class_type_info.o)
 .comment       0x0000000000000000       0x23 /opt/devkitpro/devkitPPC/lib/gcc/powerpc-eabi/8.2.0/../../../../powerpc-eabi/lib/libstdc++.a(si_class_type_info.o)
 .eh_frame      0x0000000000000000      0x12c /opt/devkitpro/devkitPPC/lib/gcc/powerpc-eabi/8.2.0/../../../../powerpc-eabi/lib/libstdc++.a(si_class_type_info.o)
 .text          0x0000000000000000        0x0 /opt/devkitpro/devkitPPC/lib/gcc/powerpc-eabi/8.2.0/../../../../powerpc-eabi/lib/libstdc++.a(pure.o)
 .data          0x0000000000000000        0x0 /opt/devkitpro/devkitPPC/lib/gcc/powerpc-eabi/8.2.0/../../../../powerpc-eabi/lib/libstdc++.a(pure.o)
 .bss           0x0000000000000000        0x0 /opt/devkitpro/devkitPPC/lib/gcc/powerpc-eabi/8.2.0/../../../../powerpc-eabi/lib/libstdc++.a(pure.o)
 .text.__cxa_pure_virtual
                0x0000000000000000       0x10 /opt/devkitpro/devkitPPC/lib/gcc/powerpc-eabi/8.2.0/../../../../powerpc-eabi/lib/libstdc++.a(pure.o)
 .text.__cxa_deleted_virtual
                0x0000000000000000       0x10 /opt/devkitpro/devkitPPC/lib/gcc/powerpc-eabi/8.2.0/../../../../powerpc-eabi/lib/libstdc++.a(pure.o)
 .comment       0x0000000000000000       0x23 /opt/devkitpro/devkitPPC/lib/gcc/powerpc-eabi/8.2.0/../../../../powerpc-eabi/lib/libstdc++.a(pure.o)
 .eh_frame      0x0000000000000000       0x44 /opt/devkitpro/devkitPPC/lib/gcc/powerpc-eabi/8.2.0/../../../../powerpc-eabi/lib/libstdc++.a(pure.o)
 .text          0x0000000000000000        0x0 /opt/devkitpro/devkitPPC/lib/gcc/powerpc-eabi/8.2.0/../../../../powerpc-eabi/lib/libstdc++.a(eh_call.o)
 .data          0x0000000000000000        0x0 /opt/devkitpro/devkitPPC/lib/gcc/powerpc-eabi/8.2.0/../../../../powerpc-eabi/lib/libstdc++.a(eh_call.o)
 .bss           0x0000000000000000        0x0 /opt/devkitpro/devkitPPC/lib/gcc/powerpc-eabi/8.2.0/../../../../powerpc-eabi/lib/libstdc++.a(eh_call.o)
 .comment       0x0000000000000000       0x23 /opt/devkitpro/devkitPPC/lib/gcc/powerpc-eabi/8.2.0/../../../../powerpc-eabi/lib/libstdc++.a(eh_call.o)
 .eh_frame      0x0000000000000000       0x34 /opt/devkitpro/devkitPPC/lib/gcc/powerpc-eabi/8.2.0/../../../../powerpc-eabi/lib/libstdc++.a(eh_call.o)
 .text          0x0000000000000000        0x0 /opt/devkitpro/devkitPPC/lib/gcc/powerpc-eabi/8.2.0/../../../../powerpc-eabi/lib/libstdc++.a(eh_globals.o)
 .data          0x0000000000000000        0x0 /opt/devkitpro/devkitPPC/lib/gcc/powerpc-eabi/8.2.0/../../../../powerpc-eabi/lib/libstdc++.a(eh_globals.o)
 .bss           0x0000000000000000        0x0 /opt/devkitpro/devkitPPC/lib/gcc/powerpc-eabi/8.2.0/../../../../powerpc-eabi/lib/libstdc++.a(eh_globals.o)
 .text._ZL15eh_globals_dtorPv
                0x0000000000000000       0x68 /opt/devkitpro/devkitPPC/lib/gcc/powerpc-eabi/8.2.0/../../../../powerpc-eabi/lib/libstdc++.a(eh_globals.o)
 .text.startup._GLOBAL__sub_I___cxa_get_globals_fast
                0x0000000000000000       0x60 /opt/devkitpro/devkitPPC/lib/gcc/powerpc-eabi/8.2.0/../../../../powerpc-eabi/lib/libstdc++.a(eh_globals.o)
 .ctors         0x0000000000000000        0x4 /opt/devkitpro/devkitPPC/lib/gcc/powerpc-eabi/8.2.0/../../../../powerpc-eabi/lib/libstdc++.a(eh_globals.o)
 .text.exit._GLOBAL__sub_D___cxa_get_globals_fast
                0x0000000000000000       0x40 /opt/devkitpro/devkitPPC/lib/gcc/powerpc-eabi/8.2.0/../../../../powerpc-eabi/lib/libstdc++.a(eh_globals.o)
 .gcc_except_table._GLOBAL__sub_D___cxa_get_globals_fast
                0x0000000000000000        0x4 /opt/devkitpro/devkitPPC/lib/gcc/powerpc-eabi/8.2.0/../../../../powerpc-eabi/lib/libstdc++.a(eh_globals.o)
 .dtors         0x0000000000000000        0x4 /opt/devkitpro/devkitPPC/lib/gcc/powerpc-eabi/8.2.0/../../../../powerpc-eabi/lib/libstdc++.a(eh_globals.o)
 .comment       0x0000000000000000       0x23 /opt/devkitpro/devkitPPC/lib/gcc/powerpc-eabi/8.2.0/../../../../powerpc-eabi/lib/libstdc++.a(eh_globals.o)
 .eh_frame      0x0000000000000000      0x114 /opt/devkitpro/devkitPPC/lib/gcc/powerpc-eabi/8.2.0/../../../../powerpc-eabi/lib/libstdc++.a(eh_globals.o)
 .text          0x0000000000000000        0x0 /opt/devkitpro/devkitPPC/lib/gcc/powerpc-eabi/8.2.0/../../../../powerpc-eabi/lib/libstdc++.a(eh_terminate.o)
 .data          0x0000000000000000        0x0 /opt/devkitpro/devkitPPC/lib/gcc/powerpc-eabi/8.2.0/../../../../powerpc-eabi/lib/libstdc++.a(eh_terminate.o)
 .bss           0x0000000000000000        0x0 /opt/devkitpro/devkitPPC/lib/gcc/powerpc-eabi/8.2.0/../../../../powerpc-eabi/lib/libstdc++.a(eh_terminate.o)
 .text._ZSt13set_terminatePFvvE
                0x0000000000000000       0x24 /opt/devkitpro/devkitPPC/lib/gcc/powerpc-eabi/8.2.0/../../../../powerpc-eabi/lib/libstdc++.a(eh_terminate.o)
 .text._ZSt14set_unexpectedPFvvE
                0x0000000000000000       0x24 /opt/devkitpro/devkitPPC/lib/gcc/powerpc-eabi/8.2.0/../../../../powerpc-eabi/lib/libstdc++.a(eh_terminate.o)
 .comment       0x0000000000000000       0x23 /opt/devkitpro/devkitPPC/lib/gcc/powerpc-eabi/8.2.0/../../../../powerpc-eabi/lib/libstdc++.a(eh_terminate.o)
 .eh_frame      0x0000000000000000       0xe8 /opt/devkitpro/devkitPPC/lib/gcc/powerpc-eabi/8.2.0/../../../../powerpc-eabi/lib/libstdc++.a(eh_terminate.o)
 .group         0x0000000000000000        0x8 /opt/devkitpro/devkitPPC/lib/gcc/powerpc-eabi/8.2.0/../../../../powerpc-eabi/lib/libstdc++.a(tinfo.o)
 .group         0x0000000000000000        0xc /opt/devkitpro/devkitPPC/lib/gcc/powerpc-eabi/8.2.0/../../../../powerpc-eabi/lib/libstdc++.a(tinfo.o)
 .group         0x0000000000000000        0xc /opt/devkitpro/devkitPPC/lib/gcc/powerpc-eabi/8.2.0/../../../../powerpc-eabi/lib/libstdc++.a(tinfo.o)
 .text          0x0000000000000000        0x0 /opt/devkitpro/devkitPPC/lib/gcc/powerpc-eabi/8.2.0/../../../../powerpc-eabi/lib/libstdc++.a(tinfo.o)
 .data          0x0000000000000000        0x0 /opt/devkitpro/devkitPPC/lib/gcc/powerpc-eabi/8.2.0/../../../../powerpc-eabi/lib/libstdc++.a(tinfo.o)
 .bss           0x0000000000000000        0x0 /opt/devkitpro/devkitPPC/lib/gcc/powerpc-eabi/8.2.0/../../../../powerpc-eabi/lib/libstdc++.a(tinfo.o)
 .text._ZNKSt9type_info11__do_upcastEPKN10__cxxabiv117__class_type_infoEPPv
                0x0000000000000000        0x8 /opt/devkitpro/devkitPPC/lib/gcc/powerpc-eabi/8.2.0/../../../../powerpc-eabi/lib/libstdc++.a(tinfo.o)
 .text._ZNSt9type_infoD0Ev
                0x0000000000000000        0x8 /opt/devkitpro/devkitPPC/lib/gcc/powerpc-eabi/8.2.0/../../../../powerpc-eabi/lib/libstdc++.a(tinfo.o)
 .text._ZNKSt9type_info10__do_catchEPKS_PPvj
                0x0000000000000000       0x54 /opt/devkitpro/devkitPPC/lib/gcc/powerpc-eabi/8.2.0/../../../../powerpc-eabi/lib/libstdc++.a(tinfo.o)
 .rodata._ZTVSt9type_info
                0x0000000000000000       0x20 /opt/devkitpro/devkitPPC/lib/gcc/powerpc-eabi/8.2.0/../../../../powerpc-eabi/lib/libstdc++.a(tinfo.o)
 .comment       0x0000000000000000       0x23 /opt/devkitpro/devkitPPC/lib/gcc/powerpc-eabi/8.2.0/../../../../powerpc-eabi/lib/libstdc++.a(tinfo.o)
 .eh_frame      0x0000000000000000       0x84 /opt/devkitpro/devkitPPC/lib/gcc/powerpc-eabi/8.2.0/../../../../powerpc-eabi/lib/libstdc++.a(tinfo.o)
 .text          0x0000000000000000        0x0 /opt/devkitpro/devkitPPC/lib/gcc/powerpc-eabi/8.2.0/../../../../powerpc-eabi/lib/libstdc++.a(eh_term_handler.o)
 .data          0x0000000000000000        0x0 /opt/devkitpro/devkitPPC/lib/gcc/powerpc-eabi/8.2.0/../../../../powerpc-eabi/lib/libstdc++.a(eh_term_handler.o)
 .bss           0x0000000000000000        0x0 /opt/devkitpro/devkitPPC/lib/gcc/powerpc-eabi/8.2.0/../../../../powerpc-eabi/lib/libstdc++.a(eh_term_handler.o)
 .comment       0x0000000000000000       0x23 /opt/devkitpro/devkitPPC/lib/gcc/powerpc-eabi/8.2.0/../../../../powerpc-eabi/lib/libstdc++.a(eh_term_handler.o)
 .text          0x0000000000000000        0x0 /opt/devkitpro/devkitPPC/lib/gcc/powerpc-eabi/8.2.0/../../../../powerpc-eabi/lib/libstdc++.a(eh_unex_handler.o)
 .data          0x0000000000000000        0x0 /opt/devkitpro/devkitPPC/lib/gcc/powerpc-eabi/8.2.0/../../../../powerpc-eabi/lib/libstdc++.a(eh_unex_handler.o)
 .bss           0x0000000000000000        0x0 /opt/devkitpro/devkitPPC/lib/gcc/powerpc-eabi/8.2.0/../../../../powerpc-eabi/lib/libstdc++.a(eh_unex_handler.o)
 .comment       0x0000000000000000       0x23 /opt/devkitpro/devkitPPC/lib/gcc/powerpc-eabi/8.2.0/../../../../powerpc-eabi/lib/libstdc++.a(eh_unex_handler.o)
 .text          0x0000000000000000        0x0 /opt/devkitpro/devkitPPC/lib/gcc/powerpc-eabi/8.2.0/libgcc.a(_udivdi3.o)
 .data          0x0000000000000000        0x0 /opt/devkitpro/devkitPPC/lib/gcc/powerpc-eabi/8.2.0/libgcc.a(_udivdi3.o)
 .bss           0x0000000000000000        0x0 /opt/devkitpro/devkitPPC/lib/gcc/powerpc-eabi/8.2.0/libgcc.a(_udivdi3.o)
 .comment       0x0000000000000000       0x23 /opt/devkitpro/devkitPPC/lib/gcc/powerpc-eabi/8.2.0/libgcc.a(_udivdi3.o)
 .eh_frame      0x0000000000000000       0x48 /opt/devkitpro/devkitPPC/lib/gcc/powerpc-eabi/8.2.0/libgcc.a(_udivdi3.o)
 .text          0x0000000000000000        0x0 /opt/devkitpro/devkitPPC/lib/gcc/powerpc-eabi/8.2.0/libgcc.a(gthr-dkp.o)
 .data          0x0000000000000000        0x0 /opt/devkitpro/devkitPPC/lib/gcc/powerpc-eabi/8.2.0/libgcc.a(gthr-dkp.o)
 .bss           0x0000000000000000        0x0 /opt/devkitpro/devkitPPC/lib/gcc/powerpc-eabi/8.2.0/libgcc.a(gthr-dkp.o)
 .text.__gthread_create
                0x0000000000000000       0x20 /opt/devkitpro/devkitPPC/lib/gcc/powerpc-eabi/8.2.0/libgcc.a(gthr-dkp.o)
 .text.__gthread_join
                0x0000000000000000       0x20 /opt/devkitpro/devkitPPC/lib/gcc/powerpc-eabi/8.2.0/libgcc.a(gthr-dkp.o)
 .text.__gthread_detach
                0x0000000000000000       0x20 /opt/devkitpro/devkitPPC/lib/gcc/powerpc-eabi/8.2.0/libgcc.a(gthr-dkp.o)
 .text.__gthread_equal
                0x0000000000000000       0x20 /opt/devkitpro/devkitPPC/lib/gcc/powerpc-eabi/8.2.0/libgcc.a(gthr-dkp.o)
 .text.__gthread_self
                0x0000000000000000       0x20 /opt/devkitpro/devkitPPC/lib/gcc/powerpc-eabi/8.2.0/libgcc.a(gthr-dkp.o)
 .text.__gthread_yield
                0x0000000000000000       0x20 /opt/devkitpro/devkitPPC/lib/gcc/powerpc-eabi/8.2.0/libgcc.a(gthr-dkp.o)
 .text.__gthread_key_create
                0x0000000000000000       0x20 /opt/devkitpro/devkitPPC/lib/gcc/powerpc-eabi/8.2.0/libgcc.a(gthr-dkp.o)
 .text.__gthread_key_delete
                0x0000000000000000       0x48 /opt/devkitpro/devkitPPC/lib/gcc/powerpc-eabi/8.2.0/libgcc.a(gthr-dkp.o)
 .text.__gthread_mutex_destroy
                0x0000000000000000       0x20 /opt/devkitpro/devkitPPC/lib/gcc/powerpc-eabi/8.2.0/libgcc.a(gthr-dkp.o)
 .text.__gthread_mutex_trylock
                0x0000000000000000       0x20 /opt/devkitpro/devkitPPC/lib/gcc/powerpc-eabi/8.2.0/libgcc.a(gthr-dkp.o)
 .text.__gthread_recursive_mutex_init_function
                0x0000000000000000       0x20 /opt/devkitpro/devkitPPC/lib/gcc/powerpc-eabi/8.2.0/libgcc.a(gthr-dkp.o)
 .text.__gthread_recursive_mutex_lock
                0x0000000000000000       0x20 /opt/devkitpro/devkitPPC/lib/gcc/powerpc-eabi/8.2.0/libgcc.a(gthr-dkp.o)
 .text.__gthread_recursive_mutex_trylock
                0x0000000000000000       0x20 /opt/devkitpro/devkitPPC/lib/gcc/powerpc-eabi/8.2.0/libgcc.a(gthr-dkp.o)
 .text.__gthread_recursive_mutex_unlock
                0x0000000000000000       0x20 /opt/devkitpro/devkitPPC/lib/gcc/powerpc-eabi/8.2.0/libgcc.a(gthr-dkp.o)
 .text.__gthread_recursive_mutex_destroy
                0x0000000000000000       0x20 /opt/devkitpro/devkitPPC/lib/gcc/powerpc-eabi/8.2.0/libgcc.a(gthr-dkp.o)
 .text.__gthread_cond_init_function
                0x0000000000000000       0x18 /opt/devkitpro/devkitPPC/lib/gcc/powerpc-eabi/8.2.0/libgcc.a(gthr-dkp.o)
 .text.__gthread_cond_broadcast
                0x0000000000000000       0x20 /opt/devkitpro/devkitPPC/lib/gcc/powerpc-eabi/8.2.0/libgcc.a(gthr-dkp.o)
 .text.__gthread_cond_signal
                0x0000000000000000       0x20 /opt/devkitpro/devkitPPC/lib/gcc/powerpc-eabi/8.2.0/libgcc.a(gthr-dkp.o)
 .text.__gthread_cond_wait
                0x0000000000000000       0x20 /opt/devkitpro/devkitPPC/lib/gcc/powerpc-eabi/8.2.0/libgcc.a(gthr-dkp.o)
 .text.__gthread_cond_timedwait
                0x0000000000000000       0x20 /opt/devkitpro/devkitPPC/lib/gcc/powerpc-eabi/8.2.0/libgcc.a(gthr-dkp.o)
 .text.__gthread_cond_wait_recursive
                0x0000000000000000       0x20 /opt/devkitpro/devkitPPC/lib/gcc/powerpc-eabi/8.2.0/libgcc.a(gthr-dkp.o)
 .text.__gthread_cond_destroy
                0x0000000000000000       0x20 /opt/devkitpro/devkitPPC/lib/gcc/powerpc-eabi/8.2.0/libgcc.a(gthr-dkp.o)
 .comment       0x0000000000000000       0x23 /opt/devkitpro/devkitPPC/lib/gcc/powerpc-eabi/8.2.0/libgcc.a(gthr-dkp.o)
 .eh_frame      0x0000000000000000      0x27c /opt/devkitpro/devkitPPC/lib/gcc/powerpc-eabi/8.2.0/libgcc.a(gthr-dkp.o)
 .data          0x0000000000000000        0x0 /opt/devkitpro/devkitPPC/lib/gcc/powerpc-eabi/8.2.0/libgcc.a(crtresxfpr.o)
 .bss           0x0000000000000000        0x0 /opt/devkitpro/devkitPPC/lib/gcc/powerpc-eabi/8.2.0/libgcc.a(crtresxfpr.o)
 .eh_frame      0x0000000000000000       0x7c /opt/devkitpro/devkitPPC/lib/gcc/powerpc-eabi/8.2.0/libgcc.a(crtresxfpr.o)
 .data          0x0000000000000000        0x0 /opt/devkitpro/devkitPPC/lib/gcc/powerpc-eabi/8.2.0/libgcc.a(crtresxgpr.o)
 .bss           0x0000000000000000        0x0 /opt/devkitpro/devkitPPC/lib/gcc/powerpc-eabi/8.2.0/libgcc.a(crtresxgpr.o)
 .eh_frame      0x0000000000000000       0x7c /opt/devkitpro/devkitPPC/lib/gcc/powerpc-eabi/8.2.0/libgcc.a(crtresxgpr.o)
 .text          0x0000000000000000        0x0 /opt/devkitpro/devkitPPC/lib/gcc/powerpc-eabi/8.2.0/libgcc.a(unwind-dw2.o)
 .data          0x0000000000000000        0x0 /opt/devkitpro/devkitPPC/lib/gcc/powerpc-eabi/8.2.0/libgcc.a(unwind-dw2.o)
 .bss           0x0000000000000000        0x0 /opt/devkitpro/devkitPPC/lib/gcc/powerpc-eabi/8.2.0/libgcc.a(unwind-dw2.o)
 .text._Unwind_GetGR
                0x0000000000000000       0x60 /opt/devkitpro/devkitPPC/lib/gcc/powerpc-eabi/8.2.0/libgcc.a(unwind-dw2.o)
 .text._Unwind_GetCFA
                0x0000000000000000        0x8 /opt/devkitpro/devkitPPC/lib/gcc/powerpc-eabi/8.2.0/libgcc.a(unwind-dw2.o)
 .text._Unwind_GetIP
                0x0000000000000000        0x8 /opt/devkitpro/devkitPPC/lib/gcc/powerpc-eabi/8.2.0/libgcc.a(unwind-dw2.o)
 .text._Unwind_FindEnclosingFunction
                0x0000000000000000       0x48 /opt/devkitpro/devkitPPC/lib/gcc/powerpc-eabi/8.2.0/libgcc.a(unwind-dw2.o)
 .text.__frame_state_for
                0x0000000000000000      0x114 /opt/devkitpro/devkitPPC/lib/gcc/powerpc-eabi/8.2.0/libgcc.a(unwind-dw2.o)
 .text._Unwind_ForcedUnwind
                0x0000000000000000      0x1dc /opt/devkitpro/devkitPPC/lib/gcc/powerpc-eabi/8.2.0/libgcc.a(unwind-dw2.o)
 .text._Unwind_Backtrace
                0x0000000000000000      0x1c4 /opt/devkitpro/devkitPPC/lib/gcc/powerpc-eabi/8.2.0/libgcc.a(unwind-dw2.o)
 .comment       0x0000000000000000       0x23 /opt/devkitpro/devkitPPC/lib/gcc/powerpc-eabi/8.2.0/libgcc.a(unwind-dw2.o)
 .eh_frame      0x0000000000000000      0x8b4 /opt/devkitpro/devkitPPC/lib/gcc/powerpc-eabi/8.2.0/libgcc.a(unwind-dw2.o)
 .text          0x0000000000000000        0x0 /opt/devkitpro/devkitPPC/lib/gcc/powerpc-eabi/8.2.0/libgcc.a(unwind-dw2-fde.o)
 .data          0x0000000000000000        0x0 /opt/devkitpro/devkitPPC/lib/gcc/powerpc-eabi/8.2.0/libgcc.a(unwind-dw2-fde.o)
 .bss           0x0000000000000000        0x0 /opt/devkitpro/devkitPPC/lib/gcc/powerpc-eabi/8.2.0/libgcc.a(unwind-dw2-fde.o)
 .text.__register_frame_info_bases.part.6
                0x0000000000000000       0x84 /opt/devkitpro/devkitPPC/lib/gcc/powerpc-eabi/8.2.0/libgcc.a(unwind-dw2-fde.o)
 .text.__deregister_frame_info_bases.part.8
                0x0000000000000000      0x174 /opt/devkitpro/devkitPPC/lib/gcc/powerpc-eabi/8.2.0/libgcc.a(unwind-dw2-fde.o)
 .text.__register_frame_info_bases
                0x0000000000000000       0x18 /opt/devkitpro/devkitPPC/lib/gcc/powerpc-eabi/8.2.0/libgcc.a(unwind-dw2-fde.o)
 .text.__register_frame_info
                0x0000000000000000       0x20 /opt/devkitpro/devkitPPC/lib/gcc/powerpc-eabi/8.2.0/libgcc.a(unwind-dw2-fde.o)
 .text.__register_frame
                0x0000000000000000       0x4c /opt/devkitpro/devkitPPC/lib/gcc/powerpc-eabi/8.2.0/libgcc.a(unwind-dw2-fde.o)
 .text.__register_frame_info_table_bases
                0x0000000000000000       0x84 /opt/devkitpro/devkitPPC/lib/gcc/powerpc-eabi/8.2.0/libgcc.a(unwind-dw2-fde.o)
 .text.__register_frame_info_table
                0x0000000000000000        0xc /opt/devkitpro/devkitPPC/lib/gcc/powerpc-eabi/8.2.0/libgcc.a(unwind-dw2-fde.o)
 .text.__register_frame_table
                0x0000000000000000       0x40 /opt/devkitpro/devkitPPC/lib/gcc/powerpc-eabi/8.2.0/libgcc.a(unwind-dw2-fde.o)
 .text.__deregister_frame_info_bases
                0x0000000000000000       0x20 /opt/devkitpro/devkitPPC/lib/gcc/powerpc-eabi/8.2.0/libgcc.a(unwind-dw2-fde.o)
 .text.__deregister_frame_info
                0x0000000000000000       0x20 /opt/devkitpro/devkitPPC/lib/gcc/powerpc-eabi/8.2.0/libgcc.a(unwind-dw2-fde.o)
 .text.__deregister_frame
                0x0000000000000000       0x2c /opt/devkitpro/devkitPPC/lib/gcc/powerpc-eabi/8.2.0/libgcc.a(unwind-dw2-fde.o)
 .comment       0x0000000000000000       0x23 /opt/devkitpro/devkitPPC/lib/gcc/powerpc-eabi/8.2.0/libgcc.a(unwind-dw2-fde.o)
 .eh_frame      0x0000000000000000      0x6d4 /opt/devkitpro/devkitPPC/lib/gcc/powerpc-eabi/8.2.0/libgcc.a(unwind-dw2-fde.o)
 .text          0x0000000000000000        0x0 /opt/devkitpro/devkitPPC/lib/gcc/powerpc-eabi/8.2.0/../../../../powerpc-eabi/lib/libsysbase.a(abort.o)
 .data          0x0000000000000000        0x0 /opt/devkitpro/devkitPPC/lib/gcc/powerpc-eabi/8.2.0/../../../../powerpc-eabi/lib/libsysbase.a(abort.o)
 .bss           0x0000000000000000        0x0 /opt/devkitpro/devkitPPC/lib/gcc/powerpc-eabi/8.2.0/../../../../powerpc-eabi/lib/libsysbase.a(abort.o)
 .comment       0x0000000000000000       0x23 /opt/devkitpro/devkitPPC/lib/gcc/powerpc-eabi/8.2.0/../../../../powerpc-eabi/lib/libsysbase.a(abort.o)
 .eh_frame      0x0000000000000000       0x2c /opt/devkitpro/devkitPPC/lib/gcc/powerpc-eabi/8.2.0/../../../../powerpc-eabi/lib/libsysbase.a(abort.o)
 .text          0x0000000000000000        0x0 /opt/devkitpro/devkitPPC/lib/gcc/powerpc-eabi/8.2.0/../../../../powerpc-eabi/lib/libsysbase.a(_exit.o)
 .data          0x0000000000000000        0x0 /opt/devkitpro/devkitPPC/lib/gcc/powerpc-eabi/8.2.0/../../../../powerpc-eabi/lib/libsysbase.a(_exit.o)
 .bss           0x0000000000000000        0x0 /opt/devkitpro/devkitPPC/lib/gcc/powerpc-eabi/8.2.0/../../../../powerpc-eabi/lib/libsysbase.a(_exit.o)
 .comment       0x0000000000000000       0x23 /opt/devkitpro/devkitPPC/lib/gcc/powerpc-eabi/8.2.0/../../../../powerpc-eabi/lib/libsysbase.a(_exit.o)
 .eh_frame      0x0000000000000000       0x34 /opt/devkitpro/devkitPPC/lib/gcc/powerpc-eabi/8.2.0/../../../../powerpc-eabi/lib/libsysbase.a(_exit.o)
 .text          0x0000000000000000        0x0 /opt/devkitpro/devkitPPC/lib/gcc/powerpc-eabi/8.2.0/../../../../powerpc-eabi/lib/libsysbase.a(mkdir.o)
 .data          0x0000000000000000        0x0 /opt/devkitpro/devkitPPC/lib/gcc/powerpc-eabi/8.2.0/../../../../powerpc-eabi/lib/libsysbase.a(mkdir.o)
 .bss           0x0000000000000000        0x0 /opt/devkitpro/devkitPPC/lib/gcc/powerpc-eabi/8.2.0/../../../../powerpc-eabi/lib/libsysbase.a(mkdir.o)
 .comment       0x0000000000000000       0x23 /opt/devkitpro/devkitPPC/lib/gcc/powerpc-eabi/8.2.0/../../../../powerpc-eabi/lib/libsysbase.a(mkdir.o)
 .eh_frame      0x0000000000000000       0x4c /opt/devkitpro/devkitPPC/lib/gcc/powerpc-eabi/8.2.0/../../../../powerpc-eabi/lib/libsysbase.a(mkdir.o)
 .text          0x0000000000000000        0x0 /opt/devkitpro/devkitPPC/lib/gcc/powerpc-eabi/8.2.0/../../../../powerpc-eabi/lib/libsysbase.a(syscall_support.o)
 .data          0x0000000000000000        0x0 /opt/devkitpro/devkitPPC/lib/gcc/powerpc-eabi/8.2.0/../../../../powerpc-eabi/lib/libsysbase.a(syscall_support.o)
 .bss           0x0000000000000000        0x0 /opt/devkitpro/devkitPPC/lib/gcc/powerpc-eabi/8.2.0/../../../../powerpc-eabi/lib/libsysbase.a(syscall_support.o)
 .text.__libc_lock_close
                0x0000000000000000       0x20 /opt/devkitpro/devkitPPC/lib/gcc/powerpc-eabi/8.2.0/../../../../powerpc-eabi/lib/libsysbase.a(syscall_support.o)
 .text.__malloc_lock
                0x0000000000000000       0x18 /opt/devkitpro/devkitPPC/lib/gcc/powerpc-eabi/8.2.0/../../../../powerpc-eabi/lib/libsysbase.a(syscall_support.o)
 .text.__malloc_unlock
                0x0000000000000000       0x18 /opt/devkitpro/devkitPPC/lib/gcc/powerpc-eabi/8.2.0/../../../../powerpc-eabi/lib/libsysbase.a(syscall_support.o)
 .comment       0x0000000000000000       0x23 /opt/devkitpro/devkitPPC/lib/gcc/powerpc-eabi/8.2.0/../../../../powerpc-eabi/lib/libsysbase.a(syscall_support.o)
 .eh_frame      0x0000000000000000       0x8c /opt/devkitpro/devkitPPC/lib/gcc/powerpc-eabi/8.2.0/../../../../powerpc-eabi/lib/libsysbase.a(syscall_support.o)
 .text          0x0000000000000000        0x0 /opt/devkitpro/devkitPPC/lib/gcc/powerpc-eabi/8.2.0/../../../../powerpc-eabi/lib/libsysbase.a(dirent.o)
 .data          0x0000000000000000        0x0 /opt/devkitpro/devkitPPC/lib/gcc/powerpc-eabi/8.2.0/../../../../powerpc-eabi/lib/libsysbase.a(dirent.o)
 .bss           0x0000000000000000        0x0 /opt/devkitpro/devkitPPC/lib/gcc/powerpc-eabi/8.2.0/../../../../powerpc-eabi/lib/libsysbase.a(dirent.o)
 .text.__dirreset
                0x0000000000000000       0x54 /opt/devkitpro/devkitPPC/lib/gcc/powerpc-eabi/8.2.0/../../../../powerpc-eabi/lib/libsysbase.a(dirent.o)
 .text.readdir_r
                0x0000000000000000      0x174 /opt/devkitpro/devkitPPC/lib/gcc/powerpc-eabi/8.2.0/../../../../powerpc-eabi/lib/libsysbase.a(dirent.o)
 .text.rewinddir
                0x0000000000000000       0x3c /opt/devkitpro/devkitPPC/lib/gcc/powerpc-eabi/8.2.0/../../../../powerpc-eabi/lib/libsysbase.a(dirent.o)
 .text.seekdir  0x0000000000000000      0x11c /opt/devkitpro/devkitPPC/lib/gcc/powerpc-eabi/8.2.0/../../../../powerpc-eabi/lib/libsysbase.a(dirent.o)
 .text.telldir  0x0000000000000000       0x18 /opt/devkitpro/devkitPPC/lib/gcc/powerpc-eabi/8.2.0/../../../../powerpc-eabi/lib/libsysbase.a(dirent.o)
 .comment       0x0000000000000000       0x23 /opt/devkitpro/devkitPPC/lib/gcc/powerpc-eabi/8.2.0/../../../../powerpc-eabi/lib/libsysbase.a(dirent.o)
 .eh_frame      0x0000000000000000      0x200 /opt/devkitpro/devkitPPC/lib/gcc/powerpc-eabi/8.2.0/../../../../powerpc-eabi/lib/libsysbase.a(dirent.o)
 .text          0x0000000000000000        0x0 /opt/devkitpro/devkitPPC/lib/gcc/powerpc-eabi/8.2.0/../../../../powerpc-eabi/lib/libsysbase.a(iosupport.o)
 .data          0x0000000000000000        0x0 /opt/devkitpro/devkitPPC/lib/gcc/powerpc-eabi/8.2.0/../../../../powerpc-eabi/lib/libsysbase.a(iosupport.o)
 .bss           0x0000000000000000        0x0 /opt/devkitpro/devkitPPC/lib/gcc/powerpc-eabi/8.2.0/../../../../powerpc-eabi/lib/libsysbase.a(iosupport.o)
 .text.setDefaultDevice
                0x0000000000000000       0x18 /opt/devkitpro/devkitPPC/lib/gcc/powerpc-eabi/8.2.0/../../../../powerpc-eabi/lib/libsysbase.a(iosupport.o)
 .text.RemoveDevice
                0x0000000000000000       0x44 /opt/devkitpro/devkitPPC/lib/gcc/powerpc-eabi/8.2.0/../../../../powerpc-eabi/lib/libsysbase.a(iosupport.o)
 .text.AddDevice
                0x0000000000000000      0x118 /opt/devkitpro/devkitPPC/lib/gcc/powerpc-eabi/8.2.0/../../../../powerpc-eabi/lib/libsysbase.a(iosupport.o)
 .text.GetDeviceOpTab
                0x0000000000000000       0x4c /opt/devkitpro/devkitPPC/lib/gcc/powerpc-eabi/8.2.0/../../../../powerpc-eabi/lib/libsysbase.a(iosupport.o)
 .comment       0x0000000000000000       0x23 /opt/devkitpro/devkitPPC/lib/gcc/powerpc-eabi/8.2.0/../../../../powerpc-eabi/lib/libsysbase.a(iosupport.o)
 .eh_frame      0x0000000000000000      0x124 /opt/devkitpro/devkitPPC/lib/gcc/powerpc-eabi/8.2.0/../../../../powerpc-eabi/lib/libsysbase.a(iosupport.o)
 .text          0x0000000000000000        0x0 /opt/devkitpro/devkitPPC/lib/gcc/powerpc-eabi/8.2.0/../../../../powerpc-eabi/lib/libc.a(lib_a-errno.o)
 .data          0x0000000000000000        0x0 /opt/devkitpro/devkitPPC/lib/gcc/powerpc-eabi/8.2.0/../../../../powerpc-eabi/lib/libc.a(lib_a-errno.o)
 .bss           0x0000000000000000        0x0 /opt/devkitpro/devkitPPC/lib/gcc/powerpc-eabi/8.2.0/../../../../powerpc-eabi/lib/libc.a(lib_a-errno.o)
 .comment       0x0000000000000000       0x23 /opt/devkitpro/devkitPPC/lib/gcc/powerpc-eabi/8.2.0/../../../../powerpc-eabi/lib/libc.a(lib_a-errno.o)
 .eh_frame      0x0000000000000000       0x28 /opt/devkitpro/devkitPPC/lib/gcc/powerpc-eabi/8.2.0/../../../../powerpc-eabi/lib/libc.a(lib_a-errno.o)
 .text          0x0000000000000000        0x0 /opt/devkitpro/devkitPPC/lib/gcc/powerpc-eabi/8.2.0/../../../../powerpc-eabi/lib/libc.a(lib_a-impure.o)
 .data          0x0000000000000000        0x0 /opt/devkitpro/devkitPPC/lib/gcc/powerpc-eabi/8.2.0/../../../../powerpc-eabi/lib/libc.a(lib_a-impure.o)
 .bss           0x0000000000000000        0x0 /opt/devkitpro/devkitPPC/lib/gcc/powerpc-eabi/8.2.0/../../../../powerpc-eabi/lib/libc.a(lib_a-impure.o)
 .comment       0x0000000000000000       0x23 /opt/devkitpro/devkitPPC/lib/gcc/powerpc-eabi/8.2.0/../../../../powerpc-eabi/lib/libc.a(lib_a-impure.o)
 .text          0x0000000000000000        0x0 /opt/devkitpro/devkitPPC/lib/gcc/powerpc-eabi/8.2.0/../../../../powerpc-eabi/lib/libc.a(lib_a-locale.o)
 .data          0x0000000000000000        0x0 /opt/devkitpro/devkitPPC/lib/gcc/powerpc-eabi/8.2.0/../../../../powerpc-eabi/lib/libc.a(lib_a-locale.o)
 .bss           0x0000000000000000        0x0 /opt/devkitpro/devkitPPC/lib/gcc/powerpc-eabi/8.2.0/../../../../powerpc-eabi/lib/libc.a(lib_a-locale.o)
 .text.currentlocale
                0x0000000000000000       0xe8 /opt/devkitpro/devkitPPC/lib/gcc/powerpc-eabi/8.2.0/../../../../powerpc-eabi/lib/libc.a(lib_a-locale.o)
 .text.__loadlocale
                0x0000000000000000      0x860 /opt/devkitpro/devkitPPC/lib/gcc/powerpc-eabi/8.2.0/../../../../powerpc-eabi/lib/libc.a(lib_a-locale.o)
 .rodata.__loadlocale
                0x0000000000000000       0xd4 /opt/devkitpro/devkitPPC/lib/gcc/powerpc-eabi/8.2.0/../../../../powerpc-eabi/lib/libc.a(lib_a-locale.o)
 .text.__get_locale_env
                0x0000000000000000       0xb8 /opt/devkitpro/devkitPPC/lib/gcc/powerpc-eabi/8.2.0/../../../../powerpc-eabi/lib/libc.a(lib_a-locale.o)
 .text._setlocale_r
                0x0000000000000000      0x458 /opt/devkitpro/devkitPPC/lib/gcc/powerpc-eabi/8.2.0/../../../../powerpc-eabi/lib/libc.a(lib_a-locale.o)
 .text.__locale_ctype_ptr_l
                0x0000000000000000        0x8 /opt/devkitpro/devkitPPC/lib/gcc/powerpc-eabi/8.2.0/../../../../powerpc-eabi/lib/libc.a(lib_a-locale.o)
 .text.setlocale
                0x0000000000000000       0x14 /opt/devkitpro/devkitPPC/lib/gcc/powerpc-eabi/8.2.0/../../../../powerpc-eabi/lib/libc.a(lib_a-locale.o)
 .bss.global_locale_string
                0x0000000000000000       0xe7 /opt/devkitpro/devkitPPC/lib/gcc/powerpc-eabi/8.2.0/../../../../powerpc-eabi/lib/libc.a(lib_a-locale.o)
 .bss.new_categories.3838
                0x0000000000000000       0xe0 /opt/devkitpro/devkitPPC/lib/gcc/powerpc-eabi/8.2.0/../../../../powerpc-eabi/lib/libc.a(lib_a-locale.o)
 .bss.saved_categories.3839
                0x0000000000000000       0xe0 /opt/devkitpro/devkitPPC/lib/gcc/powerpc-eabi/8.2.0/../../../../powerpc-eabi/lib/libc.a(lib_a-locale.o)
 .data.__default_locale
                0x0000000000000000       0x20 /opt/devkitpro/devkitPPC/lib/gcc/powerpc-eabi/8.2.0/../../../../powerpc-eabi/lib/libc.a(lib_a-locale.o)
 .rodata.__C_locale
                0x0000000000000000      0x16c /opt/devkitpro/devkitPPC/lib/gcc/powerpc-eabi/8.2.0/../../../../powerpc-eabi/lib/libc.a(lib_a-locale.o)
 .rodata.__get_locale_env.str1.4
                0x0000000000000000        0xd /opt/devkitpro/devkitPPC/lib/gcc/powerpc-eabi/8.2.0/../../../../powerpc-eabi/lib/libc.a(lib_a-locale.o)
 .rodata.__loadlocale.str1.4
                0x0000000000000000       0xcf /opt/devkitpro/devkitPPC/lib/gcc/powerpc-eabi/8.2.0/../../../../powerpc-eabi/lib/libc.a(lib_a-locale.o)
 .rodata.categories
                0x0000000000000000       0x1c /opt/devkitpro/devkitPPC/lib/gcc/powerpc-eabi/8.2.0/../../../../powerpc-eabi/lib/libc.a(lib_a-locale.o)
 .rodata.currentlocale.str1.4
                0x0000000000000000        0x2 /opt/devkitpro/devkitPPC/lib/gcc/powerpc-eabi/8.2.0/../../../../powerpc-eabi/lib/libc.a(lib_a-locale.o)
 .sbss._PathLocale
                0x0000000000000000        0x4 /opt/devkitpro/devkitPPC/lib/gcc/powerpc-eabi/8.2.0/../../../../powerpc-eabi/lib/libc.a(lib_a-locale.o)
 .comment       0x0000000000000000       0x23 /opt/devkitpro/devkitPPC/lib/gcc/powerpc-eabi/8.2.0/../../../../powerpc-eabi/lib/libc.a(lib_a-locale.o)
 .eh_frame      0x0000000000000000      0x280 /opt/devkitpro/devkitPPC/lib/gcc/powerpc-eabi/8.2.0/../../../../powerpc-eabi/lib/libc.a(lib_a-locale.o)
 .text          0x0000000000000000        0x0 /opt/devkitpro/devkitPPC/lib/gcc/powerpc-eabi/8.2.0/../../../../powerpc-eabi/lib/libc.a(lib_a-malign.o)
 .data          0x0000000000000000        0x0 /opt/devkitpro/devkitPPC/lib/gcc/powerpc-eabi/8.2.0/../../../../powerpc-eabi/lib/libc.a(lib_a-malign.o)
 .bss           0x0000000000000000        0x0 /opt/devkitpro/devkitPPC/lib/gcc/powerpc-eabi/8.2.0/../../../../powerpc-eabi/lib/libc.a(lib_a-malign.o)
 .comment       0x0000000000000000       0x23 /opt/devkitpro/devkitPPC/lib/gcc/powerpc-eabi/8.2.0/../../../../powerpc-eabi/lib/libc.a(lib_a-malign.o)
 .eh_frame      0x0000000000000000       0x28 /opt/devkitpro/devkitPPC/lib/gcc/powerpc-eabi/8.2.0/../../../../powerpc-eabi/lib/libc.a(lib_a-malign.o)
 .text          0x0000000000000000        0x0 /opt/devkitpro/devkitPPC/lib/gcc/powerpc-eabi/8.2.0/../../../../powerpc-eabi/lib/libc.a(lib_a-malloc.o)
 .data          0x0000000000000000        0x0 /opt/devkitpro/devkitPPC/lib/gcc/powerpc-eabi/8.2.0/../../../../powerpc-eabi/lib/libc.a(lib_a-malloc.o)
 .bss           0x0000000000000000        0x0 /opt/devkitpro/devkitPPC/lib/gcc/powerpc-eabi/8.2.0/../../../../powerpc-eabi/lib/libc.a(lib_a-malloc.o)
 .comment       0x0000000000000000       0x23 /opt/devkitpro/devkitPPC/lib/gcc/powerpc-eabi/8.2.0/../../../../powerpc-eabi/lib/libc.a(lib_a-malloc.o)
 .eh_frame      0x0000000000000000       0x3c /opt/devkitpro/devkitPPC/lib/gcc/powerpc-eabi/8.2.0/../../../../powerpc-eabi/lib/libc.a(lib_a-malloc.o)
 .text          0x0000000000000000        0x0 /opt/devkitpro/devkitPPC/lib/gcc/powerpc-eabi/8.2.0/../../../../powerpc-eabi/lib/libc.a(lib_a-mbtowc_r.o)
 .data          0x0000000000000000        0x0 /opt/devkitpro/devkitPPC/lib/gcc/powerpc-eabi/8.2.0/../../../../powerpc-eabi/lib/libc.a(lib_a-mbtowc_r.o)
 .bss           0x0000000000000000        0x0 /opt/devkitpro/devkitPPC/lib/gcc/powerpc-eabi/8.2.0/../../../../powerpc-eabi/lib/libc.a(lib_a-mbtowc_r.o)
 .text._mbtowc_r
                0x0000000000000000       0x34 /opt/devkitpro/devkitPPC/lib/gcc/powerpc-eabi/8.2.0/../../../../powerpc-eabi/lib/libc.a(lib_a-mbtowc_r.o)
 .text.__ascii_mbtowc
                0x0000000000000000       0x84 /opt/devkitpro/devkitPPC/lib/gcc/powerpc-eabi/8.2.0/../../../../powerpc-eabi/lib/libc.a(lib_a-mbtowc_r.o)
 .text.__sjis_mbtowc
                0x0000000000000000      0x1b0 /opt/devkitpro/devkitPPC/lib/gcc/powerpc-eabi/8.2.0/../../../../powerpc-eabi/lib/libc.a(lib_a-mbtowc_r.o)
 .text.__eucjp_mbtowc
                0x0000000000000000      0x250 /opt/devkitpro/devkitPPC/lib/gcc/powerpc-eabi/8.2.0/../../../../powerpc-eabi/lib/libc.a(lib_a-mbtowc_r.o)
 .text.__jis_mbtowc
                0x0000000000000000      0x25c /opt/devkitpro/devkitPPC/lib/gcc/powerpc-eabi/8.2.0/../../../../powerpc-eabi/lib/libc.a(lib_a-mbtowc_r.o)
 .rodata.__jis_mbtowc
                0x0000000000000000       0x18 /opt/devkitpro/devkitPPC/lib/gcc/powerpc-eabi/8.2.0/../../../../powerpc-eabi/lib/libc.a(lib_a-mbtowc_r.o)
 .rodata.JIS_action_table
                0x0000000000000000       0x48 /opt/devkitpro/devkitPPC/lib/gcc/powerpc-eabi/8.2.0/../../../../powerpc-eabi/lib/libc.a(lib_a-mbtowc_r.o)
 .rodata.JIS_state_table
                0x0000000000000000       0x48 /opt/devkitpro/devkitPPC/lib/gcc/powerpc-eabi/8.2.0/../../../../powerpc-eabi/lib/libc.a(lib_a-mbtowc_r.o)
 .comment       0x0000000000000000       0x23 /opt/devkitpro/devkitPPC/lib/gcc/powerpc-eabi/8.2.0/../../../../powerpc-eabi/lib/libc.a(lib_a-mbtowc_r.o)
 .eh_frame      0x0000000000000000      0x15c /opt/devkitpro/devkitPPC/lib/gcc/powerpc-eabi/8.2.0/../../../../powerpc-eabi/lib/libc.a(lib_a-mbtowc_r.o)
 .text          0x0000000000000000        0x0 /opt/devkitpro/devkitPPC/lib/gcc/powerpc-eabi/8.2.0/../../../../powerpc-eabi/lib/libc.a(lib_a-memcpy.o)
 .data          0x0000000000000000        0x0 /opt/devkitpro/devkitPPC/lib/gcc/powerpc-eabi/8.2.0/../../../../powerpc-eabi/lib/libc.a(lib_a-memcpy.o)
 .bss           0x0000000000000000        0x0 /opt/devkitpro/devkitPPC/lib/gcc/powerpc-eabi/8.2.0/../../../../powerpc-eabi/lib/libc.a(lib_a-memcpy.o)
 .comment       0x0000000000000000       0x23 /opt/devkitpro/devkitPPC/lib/gcc/powerpc-eabi/8.2.0/../../../../powerpc-eabi/lib/libc.a(lib_a-memcpy.o)
 .eh_frame      0x0000000000000000       0x28 /opt/devkitpro/devkitPPC/lib/gcc/powerpc-eabi/8.2.0/../../../../powerpc-eabi/lib/libc.a(lib_a-memcpy.o)
 .text          0x0000000000000000        0x0 /opt/devkitpro/devkitPPC/lib/gcc/powerpc-eabi/8.2.0/../../../../powerpc-eabi/lib/libc.a(lib_a-memset.o)
 .data          0x0000000000000000        0x0 /opt/devkitpro/devkitPPC/lib/gcc/powerpc-eabi/8.2.0/../../../../powerpc-eabi/lib/libc.a(lib_a-memset.o)
 .bss           0x0000000000000000        0x0 /opt/devkitpro/devkitPPC/lib/gcc/powerpc-eabi/8.2.0/../../../../powerpc-eabi/lib/libc.a(lib_a-memset.o)
 .comment       0x0000000000000000       0x23 /opt/devkitpro/devkitPPC/lib/gcc/powerpc-eabi/8.2.0/../../../../powerpc-eabi/lib/libc.a(lib_a-memset.o)
 .eh_frame      0x0000000000000000       0x28 /opt/devkitpro/devkitPPC/lib/gcc/powerpc-eabi/8.2.0/../../../../powerpc-eabi/lib/libc.a(lib_a-memset.o)
 .text          0x0000000000000000        0x0 /opt/devkitpro/devkitPPC/lib/gcc/powerpc-eabi/8.2.0/../../../../powerpc-eabi/lib/libc.a(lib_a-strcasecmp.o)
 .data          0x0000000000000000        0x0 /opt/devkitpro/devkitPPC/lib/gcc/powerpc-eabi/8.2.0/../../../../powerpc-eabi/lib/libc.a(lib_a-strcasecmp.o)
 .bss           0x0000000000000000        0x0 /opt/devkitpro/devkitPPC/lib/gcc/powerpc-eabi/8.2.0/../../../../powerpc-eabi/lib/libc.a(lib_a-strcasecmp.o)
 .text.strcasecmp
                0x0000000000000000       0xbc /opt/devkitpro/devkitPPC/lib/gcc/powerpc-eabi/8.2.0/../../../../powerpc-eabi/lib/libc.a(lib_a-strcasecmp.o)
 .comment       0x0000000000000000       0x23 /opt/devkitpro/devkitPPC/lib/gcc/powerpc-eabi/8.2.0/../../../../powerpc-eabi/lib/libc.a(lib_a-strcasecmp.o)
 .eh_frame      0x0000000000000000       0x4c /opt/devkitpro/devkitPPC/lib/gcc/powerpc-eabi/8.2.0/../../../../powerpc-eabi/lib/libc.a(lib_a-strcasecmp.o)
 .text          0x0000000000000000        0x0 /opt/devkitpro/devkitPPC/lib/gcc/powerpc-eabi/8.2.0/../../../../powerpc-eabi/lib/libc.a(lib_a-strcat.o)
 .data          0x0000000000000000        0x0 /opt/devkitpro/devkitPPC/lib/gcc/powerpc-eabi/8.2.0/../../../../powerpc-eabi/lib/libc.a(lib_a-strcat.o)
 .bss           0x0000000000000000        0x0 /opt/devkitpro/devkitPPC/lib/gcc/powerpc-eabi/8.2.0/../../../../powerpc-eabi/lib/libc.a(lib_a-strcat.o)
 .text.strcat   0x0000000000000000       0x78 /opt/devkitpro/devkitPPC/lib/gcc/powerpc-eabi/8.2.0/../../../../powerpc-eabi/lib/libc.a(lib_a-strcat.o)
 .comment       0x0000000000000000       0x23 /opt/devkitpro/devkitPPC/lib/gcc/powerpc-eabi/8.2.0/../../../../powerpc-eabi/lib/libc.a(lib_a-strcat.o)
 .eh_frame      0x0000000000000000       0x3c /opt/devkitpro/devkitPPC/lib/gcc/powerpc-eabi/8.2.0/../../../../powerpc-eabi/lib/libc.a(lib_a-strcat.o)
 .text          0x0000000000000000        0x0 /opt/devkitpro/devkitPPC/lib/gcc/powerpc-eabi/8.2.0/../../../../powerpc-eabi/lib/libc.a(lib_a-strchr.o)
 .data          0x0000000000000000        0x0 /opt/devkitpro/devkitPPC/lib/gcc/powerpc-eabi/8.2.0/../../../../powerpc-eabi/lib/libc.a(lib_a-strchr.o)
 .bss           0x0000000000000000        0x0 /opt/devkitpro/devkitPPC/lib/gcc/powerpc-eabi/8.2.0/../../../../powerpc-eabi/lib/libc.a(lib_a-strchr.o)
 .comment       0x0000000000000000       0x23 /opt/devkitpro/devkitPPC/lib/gcc/powerpc-eabi/8.2.0/../../../../powerpc-eabi/lib/libc.a(lib_a-strchr.o)
 .eh_frame      0x0000000000000000       0x28 /opt/devkitpro/devkitPPC/lib/gcc/powerpc-eabi/8.2.0/../../../../powerpc-eabi/lib/libc.a(lib_a-strchr.o)
 .text          0x0000000000000000        0x0 /opt/devkitpro/devkitPPC/lib/gcc/powerpc-eabi/8.2.0/../../../../powerpc-eabi/lib/libc.a(lib_a-strcmp.o)
 .data          0x0000000000000000        0x0 /opt/devkitpro/devkitPPC/lib/gcc/powerpc-eabi/8.2.0/../../../../powerpc-eabi/lib/libc.a(lib_a-strcmp.o)
 .bss           0x0000000000000000        0x0 /opt/devkitpro/devkitPPC/lib/gcc/powerpc-eabi/8.2.0/../../../../powerpc-eabi/lib/libc.a(lib_a-strcmp.o)
 .comment       0x0000000000000000       0x23 /opt/devkitpro/devkitPPC/lib/gcc/powerpc-eabi/8.2.0/../../../../powerpc-eabi/lib/libc.a(lib_a-strcmp.o)
 .eh_frame      0x0000000000000000       0x28 /opt/devkitpro/devkitPPC/lib/gcc/powerpc-eabi/8.2.0/../../../../powerpc-eabi/lib/libc.a(lib_a-strcmp.o)
 .text          0x0000000000000000        0x0 /opt/devkitpro/devkitPPC/lib/gcc/powerpc-eabi/8.2.0/../../../../powerpc-eabi/lib/libc.a(lib_a-strcpy.o)
 .data          0x0000000000000000        0x0 /opt/devkitpro/devkitPPC/lib/gcc/powerpc-eabi/8.2.0/../../../../powerpc-eabi/lib/libc.a(lib_a-strcpy.o)
 .bss           0x0000000000000000        0x0 /opt/devkitpro/devkitPPC/lib/gcc/powerpc-eabi/8.2.0/../../../../powerpc-eabi/lib/libc.a(lib_a-strcpy.o)
 .comment       0x0000000000000000       0x23 /opt/devkitpro/devkitPPC/lib/gcc/powerpc-eabi/8.2.0/../../../../powerpc-eabi/lib/libc.a(lib_a-strcpy.o)
 .eh_frame      0x0000000000000000       0x28 /opt/devkitpro/devkitPPC/lib/gcc/powerpc-eabi/8.2.0/../../../../powerpc-eabi/lib/libc.a(lib_a-strcpy.o)
 .text          0x0000000000000000        0x0 /opt/devkitpro/devkitPPC/lib/gcc/powerpc-eabi/8.2.0/../../../../powerpc-eabi/lib/libc.a(lib_a-strlcpy.o)
 .data          0x0000000000000000        0x0 /opt/devkitpro/devkitPPC/lib/gcc/powerpc-eabi/8.2.0/../../../../powerpc-eabi/lib/libc.a(lib_a-strlcpy.o)
 .bss           0x0000000000000000        0x0 /opt/devkitpro/devkitPPC/lib/gcc/powerpc-eabi/8.2.0/../../../../powerpc-eabi/lib/libc.a(lib_a-strlcpy.o)
 .text.strlcpy  0x0000000000000000       0x84 /opt/devkitpro/devkitPPC/lib/gcc/powerpc-eabi/8.2.0/../../../../powerpc-eabi/lib/libc.a(lib_a-strlcpy.o)
 .comment       0x0000000000000000       0x23 /opt/devkitpro/devkitPPC/lib/gcc/powerpc-eabi/8.2.0/../../../../powerpc-eabi/lib/libc.a(lib_a-strlcpy.o)
 .eh_frame      0x0000000000000000       0x28 /opt/devkitpro/devkitPPC/lib/gcc/powerpc-eabi/8.2.0/../../../../powerpc-eabi/lib/libc.a(lib_a-strlcpy.o)
 .text          0x0000000000000000        0x0 /opt/devkitpro/devkitPPC/lib/gcc/powerpc-eabi/8.2.0/../../../../powerpc-eabi/lib/libc.a(lib_a-strlen.o)
 .data          0x0000000000000000        0x0 /opt/devkitpro/devkitPPC/lib/gcc/powerpc-eabi/8.2.0/../../../../powerpc-eabi/lib/libc.a(lib_a-strlen.o)
 .bss           0x0000000000000000        0x0 /opt/devkitpro/devkitPPC/lib/gcc/powerpc-eabi/8.2.0/../../../../powerpc-eabi/lib/libc.a(lib_a-strlen.o)
 .comment       0x0000000000000000       0x23 /opt/devkitpro/devkitPPC/lib/gcc/powerpc-eabi/8.2.0/../../../../powerpc-eabi/lib/libc.a(lib_a-strlen.o)
 .eh_frame      0x0000000000000000       0x28 /opt/devkitpro/devkitPPC/lib/gcc/powerpc-eabi/8.2.0/../../../../powerpc-eabi/lib/libc.a(lib_a-strlen.o)
 .text          0x0000000000000000        0x0 /opt/devkitpro/devkitPPC/lib/gcc/powerpc-eabi/8.2.0/../../../../powerpc-eabi/lib/libc.a(lib_a-strncasecmp.o)
 .data          0x0000000000000000        0x0 /opt/devkitpro/devkitPPC/lib/gcc/powerpc-eabi/8.2.0/../../../../powerpc-eabi/lib/libc.a(lib_a-strncasecmp.o)
 .bss           0x0000000000000000        0x0 /opt/devkitpro/devkitPPC/lib/gcc/powerpc-eabi/8.2.0/../../../../powerpc-eabi/lib/libc.a(lib_a-strncasecmp.o)
 .text.strncasecmp
                0x0000000000000000       0xd0 /opt/devkitpro/devkitPPC/lib/gcc/powerpc-eabi/8.2.0/../../../../powerpc-eabi/lib/libc.a(lib_a-strncasecmp.o)
 .comment       0x0000000000000000       0x23 /opt/devkitpro/devkitPPC/lib/gcc/powerpc-eabi/8.2.0/../../../../powerpc-eabi/lib/libc.a(lib_a-strncasecmp.o)
 .eh_frame      0x0000000000000000       0x50 /opt/devkitpro/devkitPPC/lib/gcc/powerpc-eabi/8.2.0/../../../../powerpc-eabi/lib/libc.a(lib_a-strncasecmp.o)
 .text          0x0000000000000000        0x0 /opt/devkitpro/devkitPPC/lib/gcc/powerpc-eabi/8.2.0/../../../../powerpc-eabi/lib/libc.a(lib_a-strncmp.o)
 .data          0x0000000000000000        0x0 /opt/devkitpro/devkitPPC/lib/gcc/powerpc-eabi/8.2.0/../../../../powerpc-eabi/lib/libc.a(lib_a-strncmp.o)
 .bss           0x0000000000000000        0x0 /opt/devkitpro/devkitPPC/lib/gcc/powerpc-eabi/8.2.0/../../../../powerpc-eabi/lib/libc.a(lib_a-strncmp.o)
 .comment       0x0000000000000000       0x23 /opt/devkitpro/devkitPPC/lib/gcc/powerpc-eabi/8.2.0/../../../../powerpc-eabi/lib/libc.a(lib_a-strncmp.o)
 .eh_frame      0x0000000000000000       0x28 /opt/devkitpro/devkitPPC/lib/gcc/powerpc-eabi/8.2.0/../../../../powerpc-eabi/lib/libc.a(lib_a-strncmp.o)
 .text          0x0000000000000000        0x0 /opt/devkitpro/devkitPPC/lib/gcc/powerpc-eabi/8.2.0/../../../../powerpc-eabi/lib/libc.a(lib_a-strncpy.o)
 .data          0x0000000000000000        0x0 /opt/devkitpro/devkitPPC/lib/gcc/powerpc-eabi/8.2.0/../../../../powerpc-eabi/lib/libc.a(lib_a-strncpy.o)
 .bss           0x0000000000000000        0x0 /opt/devkitpro/devkitPPC/lib/gcc/powerpc-eabi/8.2.0/../../../../powerpc-eabi/lib/libc.a(lib_a-strncpy.o)
 .comment       0x0000000000000000       0x23 /opt/devkitpro/devkitPPC/lib/gcc/powerpc-eabi/8.2.0/../../../../powerpc-eabi/lib/libc.a(lib_a-strncpy.o)
 .eh_frame      0x0000000000000000       0x28 /opt/devkitpro/devkitPPC/lib/gcc/powerpc-eabi/8.2.0/../../../../powerpc-eabi/lib/libc.a(lib_a-strncpy.o)
 .text          0x0000000000000000        0x0 /opt/devkitpro/devkitPPC/lib/gcc/powerpc-eabi/8.2.0/../../../../powerpc-eabi/lib/libc.a(lib_a-strnlen.o)
 .data          0x0000000000000000        0x0 /opt/devkitpro/devkitPPC/lib/gcc/powerpc-eabi/8.2.0/../../../../powerpc-eabi/lib/libc.a(lib_a-strnlen.o)
 .bss           0x0000000000000000        0x0 /opt/devkitpro/devkitPPC/lib/gcc/powerpc-eabi/8.2.0/../../../../powerpc-eabi/lib/libc.a(lib_a-strnlen.o)
 .comment       0x0000000000000000       0x23 /opt/devkitpro/devkitPPC/lib/gcc/powerpc-eabi/8.2.0/../../../../powerpc-eabi/lib/libc.a(lib_a-strnlen.o)
 .eh_frame      0x0000000000000000       0x28 /opt/devkitpro/devkitPPC/lib/gcc/powerpc-eabi/8.2.0/../../../../powerpc-eabi/lib/libc.a(lib_a-strnlen.o)
 .text          0x0000000000000000        0x0 /opt/devkitpro/devkitPPC/lib/gcc/powerpc-eabi/8.2.0/../../../../powerpc-eabi/lib/libc.a(lib_a-strtol.o)
 .data          0x0000000000000000        0x0 /opt/devkitpro/devkitPPC/lib/gcc/powerpc-eabi/8.2.0/../../../../powerpc-eabi/lib/libc.a(lib_a-strtol.o)
 .bss           0x0000000000000000        0x0 /opt/devkitpro/devkitPPC/lib/gcc/powerpc-eabi/8.2.0/../../../../powerpc-eabi/lib/libc.a(lib_a-strtol.o)
 .text._strtol_l.isra.0
                0x0000000000000000      0x254 /opt/devkitpro/devkitPPC/lib/gcc/powerpc-eabi/8.2.0/../../../../powerpc-eabi/lib/libc.a(lib_a-strtol.o)
 .text._strtol_r
                0x0000000000000000       0x24 /opt/devkitpro/devkitPPC/lib/gcc/powerpc-eabi/8.2.0/../../../../powerpc-eabi/lib/libc.a(lib_a-strtol.o)
 .text.strtol_l
                0x0000000000000000       0x1c /opt/devkitpro/devkitPPC/lib/gcc/powerpc-eabi/8.2.0/../../../../powerpc-eabi/lib/libc.a(lib_a-strtol.o)
 .text.strtol   0x0000000000000000       0x40 /opt/devkitpro/devkitPPC/lib/gcc/powerpc-eabi/8.2.0/../../../../powerpc-eabi/lib/libc.a(lib_a-strtol.o)
 .comment       0x0000000000000000       0x23 /opt/devkitpro/devkitPPC/lib/gcc/powerpc-eabi/8.2.0/../../../../powerpc-eabi/lib/libc.a(lib_a-strtol.o)
 .eh_frame      0x0000000000000000       0x94 /opt/devkitpro/devkitPPC/lib/gcc/powerpc-eabi/8.2.0/../../../../powerpc-eabi/lib/libc.a(lib_a-strtol.o)
 .text          0x0000000000000000        0x0 /opt/devkitpro/devkitPPC/lib/gcc/powerpc-eabi/8.2.0/../../../../powerpc-eabi/lib/libc.a(lib_a-sysclose.o)
 .data          0x0000000000000000        0x0 /opt/devkitpro/devkitPPC/lib/gcc/powerpc-eabi/8.2.0/../../../../powerpc-eabi/lib/libc.a(lib_a-sysclose.o)
 .bss           0x0000000000000000        0x0 /opt/devkitpro/devkitPPC/lib/gcc/powerpc-eabi/8.2.0/../../../../powerpc-eabi/lib/libc.a(lib_a-sysclose.o)
 .comment       0x0000000000000000       0x23 /opt/devkitpro/devkitPPC/lib/gcc/powerpc-eabi/8.2.0/../../../../powerpc-eabi/lib/libc.a(lib_a-sysclose.o)
 .eh_frame      0x0000000000000000       0x28 /opt/devkitpro/devkitPPC/lib/gcc/powerpc-eabi/8.2.0/../../../../powerpc-eabi/lib/libc.a(lib_a-sysclose.o)
 .text          0x0000000000000000        0x0 /opt/devkitpro/devkitPPC/lib/gcc/powerpc-eabi/8.2.0/../../../../powerpc-eabi/lib/libc.a(lib_a-sysfstat.o)
 .data          0x0000000000000000        0x0 /opt/devkitpro/devkitPPC/lib/gcc/powerpc-eabi/8.2.0/../../../../powerpc-eabi/lib/libc.a(lib_a-sysfstat.o)
 .bss           0x0000000000000000        0x0 /opt/devkitpro/devkitPPC/lib/gcc/powerpc-eabi/8.2.0/../../../../powerpc-eabi/lib/libc.a(lib_a-sysfstat.o)
 .comment       0x0000000000000000       0x23 /opt/devkitpro/devkitPPC/lib/gcc/powerpc-eabi/8.2.0/../../../../powerpc-eabi/lib/libc.a(lib_a-sysfstat.o)
 .eh_frame      0x0000000000000000       0x28 /opt/devkitpro/devkitPPC/lib/gcc/powerpc-eabi/8.2.0/../../../../powerpc-eabi/lib/libc.a(lib_a-sysfstat.o)
 .text          0x0000000000000000        0x0 /opt/devkitpro/devkitPPC/lib/gcc/powerpc-eabi/8.2.0/../../../../powerpc-eabi/lib/libc.a(lib_a-syslseek.o)
 .data          0x0000000000000000        0x0 /opt/devkitpro/devkitPPC/lib/gcc/powerpc-eabi/8.2.0/../../../../powerpc-eabi/lib/libc.a(lib_a-syslseek.o)
 .bss           0x0000000000000000        0x0 /opt/devkitpro/devkitPPC/lib/gcc/powerpc-eabi/8.2.0/../../../../powerpc-eabi/lib/libc.a(lib_a-syslseek.o)
 .comment       0x0000000000000000       0x23 /opt/devkitpro/devkitPPC/lib/gcc/powerpc-eabi/8.2.0/../../../../powerpc-eabi/lib/libc.a(lib_a-syslseek.o)
 .eh_frame      0x0000000000000000       0x28 /opt/devkitpro/devkitPPC/lib/gcc/powerpc-eabi/8.2.0/../../../../powerpc-eabi/lib/libc.a(lib_a-syslseek.o)
 .text          0x0000000000000000        0x0 /opt/devkitpro/devkitPPC/lib/gcc/powerpc-eabi/8.2.0/../../../../powerpc-eabi/lib/libc.a(lib_a-sysopen.o)
 .data          0x0000000000000000        0x0 /opt/devkitpro/devkitPPC/lib/gcc/powerpc-eabi/8.2.0/../../../../powerpc-eabi/lib/libc.a(lib_a-sysopen.o)
 .bss           0x0000000000000000        0x0 /opt/devkitpro/devkitPPC/lib/gcc/powerpc-eabi/8.2.0/../../../../powerpc-eabi/lib/libc.a(lib_a-sysopen.o)
 .comment       0x0000000000000000       0x23 /opt/devkitpro/devkitPPC/lib/gcc/powerpc-eabi/8.2.0/../../../../powerpc-eabi/lib/libc.a(lib_a-sysopen.o)
 .eh_frame      0x0000000000000000       0x34 /opt/devkitpro/devkitPPC/lib/gcc/powerpc-eabi/8.2.0/../../../../powerpc-eabi/lib/libc.a(lib_a-sysopen.o)
 .text          0x0000000000000000        0x0 /opt/devkitpro/devkitPPC/lib/gcc/powerpc-eabi/8.2.0/../../../../powerpc-eabi/lib/libc.a(lib_a-sysread.o)
 .data          0x0000000000000000        0x0 /opt/devkitpro/devkitPPC/lib/gcc/powerpc-eabi/8.2.0/../../../../powerpc-eabi/lib/libc.a(lib_a-sysread.o)
 .bss           0x0000000000000000        0x0 /opt/devkitpro/devkitPPC/lib/gcc/powerpc-eabi/8.2.0/../../../../powerpc-eabi/lib/libc.a(lib_a-sysread.o)
 .comment       0x0000000000000000       0x23 /opt/devkitpro/devkitPPC/lib/gcc/powerpc-eabi/8.2.0/../../../../powerpc-eabi/lib/libc.a(lib_a-sysread.o)
 .eh_frame      0x0000000000000000       0x28 /opt/devkitpro/devkitPPC/lib/gcc/powerpc-eabi/8.2.0/../../../../powerpc-eabi/lib/libc.a(lib_a-sysread.o)
 .text          0x0000000000000000        0x0 /opt/devkitpro/devkitPPC/lib/gcc/powerpc-eabi/8.2.0/../../../../powerpc-eabi/lib/libc.a(lib_a-sysstat.o)
 .data          0x0000000000000000        0x0 /opt/devkitpro/devkitPPC/lib/gcc/powerpc-eabi/8.2.0/../../../../powerpc-eabi/lib/libc.a(lib_a-sysstat.o)
 .bss           0x0000000000000000        0x0 /opt/devkitpro/devkitPPC/lib/gcc/powerpc-eabi/8.2.0/../../../../powerpc-eabi/lib/libc.a(lib_a-sysstat.o)
 .comment       0x0000000000000000       0x23 /opt/devkitpro/devkitPPC/lib/gcc/powerpc-eabi/8.2.0/../../../../powerpc-eabi/lib/libc.a(lib_a-sysstat.o)
 .eh_frame      0x0000000000000000       0x28 /opt/devkitpro/devkitPPC/lib/gcc/powerpc-eabi/8.2.0/../../../../powerpc-eabi/lib/libc.a(lib_a-sysstat.o)
 .text          0x0000000000000000        0x0 /opt/devkitpro/devkitPPC/lib/gcc/powerpc-eabi/8.2.0/../../../../powerpc-eabi/lib/libc.a(lib_a-syswrite.o)
 .data          0x0000000000000000        0x0 /opt/devkitpro/devkitPPC/lib/gcc/powerpc-eabi/8.2.0/../../../../powerpc-eabi/lib/libc.a(lib_a-syswrite.o)
 .bss           0x0000000000000000        0x0 /opt/devkitpro/devkitPPC/lib/gcc/powerpc-eabi/8.2.0/../../../../powerpc-eabi/lib/libc.a(lib_a-syswrite.o)
 .comment       0x0000000000000000       0x23 /opt/devkitpro/devkitPPC/lib/gcc/powerpc-eabi/8.2.0/../../../../powerpc-eabi/lib/libc.a(lib_a-syswrite.o)
 .eh_frame      0x0000000000000000       0x28 /opt/devkitpro/devkitPPC/lib/gcc/powerpc-eabi/8.2.0/../../../../powerpc-eabi/lib/libc.a(lib_a-syswrite.o)
 .text          0x0000000000000000        0x0 /opt/devkitpro/devkitPPC/lib/gcc/powerpc-eabi/8.2.0/../../../../powerpc-eabi/lib/libc.a(lib_a-vsprintf.o)
 .data          0x0000000000000000        0x0 /opt/devkitpro/devkitPPC/lib/gcc/powerpc-eabi/8.2.0/../../../../powerpc-eabi/lib/libc.a(lib_a-vsprintf.o)
 .bss           0x0000000000000000        0x0 /opt/devkitpro/devkitPPC/lib/gcc/powerpc-eabi/8.2.0/../../../../powerpc-eabi/lib/libc.a(lib_a-vsprintf.o)
 .comment       0x0000000000000000       0x23 /opt/devkitpro/devkitPPC/lib/gcc/powerpc-eabi/8.2.0/../../../../powerpc-eabi/lib/libc.a(lib_a-vsprintf.o)
 .eh_frame      0x0000000000000000       0x48 /opt/devkitpro/devkitPPC/lib/gcc/powerpc-eabi/8.2.0/../../../../powerpc-eabi/lib/libc.a(lib_a-vsprintf.o)
 .text          0x0000000000000000        0x0 /opt/devkitpro/devkitPPC/lib/gcc/powerpc-eabi/8.2.0/../../../../powerpc-eabi/lib/libc.a(lib_a-wctomb_r.o)
 .data          0x0000000000000000        0x0 /opt/devkitpro/devkitPPC/lib/gcc/powerpc-eabi/8.2.0/../../../../powerpc-eabi/lib/libc.a(lib_a-wctomb_r.o)
 .bss           0x0000000000000000        0x0 /opt/devkitpro/devkitPPC/lib/gcc/powerpc-eabi/8.2.0/../../../../powerpc-eabi/lib/libc.a(lib_a-wctomb_r.o)
 .text._wctomb_r
                0x0000000000000000       0x34 /opt/devkitpro/devkitPPC/lib/gcc/powerpc-eabi/8.2.0/../../../../powerpc-eabi/lib/libc.a(lib_a-wctomb_r.o)
 .text.__ascii_wctomb
                0x0000000000000000       0x40 /opt/devkitpro/devkitPPC/lib/gcc/powerpc-eabi/8.2.0/../../../../powerpc-eabi/lib/libc.a(lib_a-wctomb_r.o)
 .text.__sjis_wctomb
                0x0000000000000000       0x94 /opt/devkitpro/devkitPPC/lib/gcc/powerpc-eabi/8.2.0/../../../../powerpc-eabi/lib/libc.a(lib_a-wctomb_r.o)
 .text.__eucjp_wctomb
                0x0000000000000000       0xc0 /opt/devkitpro/devkitPPC/lib/gcc/powerpc-eabi/8.2.0/../../../../powerpc-eabi/lib/libc.a(lib_a-wctomb_r.o)
 .text.__jis_wctomb
                0x0000000000000000       0xc8 /opt/devkitpro/devkitPPC/lib/gcc/powerpc-eabi/8.2.0/../../../../powerpc-eabi/lib/libc.a(lib_a-wctomb_r.o)
 .comment       0x0000000000000000       0x23 /opt/devkitpro/devkitPPC/lib/gcc/powerpc-eabi/8.2.0/../../../../powerpc-eabi/lib/libc.a(lib_a-wctomb_r.o)
 .eh_frame      0x0000000000000000       0x8c /opt/devkitpro/devkitPPC/lib/gcc/powerpc-eabi/8.2.0/../../../../powerpc-eabi/lib/libc.a(lib_a-wctomb_r.o)
 .text          0x0000000000000000        0x0 /opt/devkitpro/devkitPPC/lib/gcc/powerpc-eabi/8.2.0/../../../../powerpc-eabi/lib/libc.a(lib_a-ctype_.o)
 .data          0x0000000000000000        0x0 /opt/devkitpro/devkitPPC/lib/gcc/powerpc-eabi/8.2.0/../../../../powerpc-eabi/lib/libc.a(lib_a-ctype_.o)
 .bss           0x0000000000000000        0x0 /opt/devkitpro/devkitPPC/lib/gcc/powerpc-eabi/8.2.0/../../../../powerpc-eabi/lib/libc.a(lib_a-ctype_.o)
 .text.__set_ctype
                0x0000000000000000       0x10 /opt/devkitpro/devkitPPC/lib/gcc/powerpc-eabi/8.2.0/../../../../powerpc-eabi/lib/libc.a(lib_a-ctype_.o)
 .comment       0x0000000000000000       0x23 /opt/devkitpro/devkitPPC/lib/gcc/powerpc-eabi/8.2.0/../../../../powerpc-eabi/lib/libc.a(lib_a-ctype_.o)
 .eh_frame      0x0000000000000000       0x28 /opt/devkitpro/devkitPPC/lib/gcc/powerpc-eabi/8.2.0/../../../../powerpc-eabi/lib/libc.a(lib_a-ctype_.o)
 .text          0x0000000000000000        0x0 /opt/devkitpro/devkitPPC/lib/gcc/powerpc-eabi/8.2.0/../../../../powerpc-eabi/lib/libc.a(lib_a-getenv_r.o)
 .data          0x0000000000000000        0x0 /opt/devkitpro/devkitPPC/lib/gcc/powerpc-eabi/8.2.0/../../../../powerpc-eabi/lib/libc.a(lib_a-getenv_r.o)
 .bss           0x0000000000000000        0x0 /opt/devkitpro/devkitPPC/lib/gcc/powerpc-eabi/8.2.0/../../../../powerpc-eabi/lib/libc.a(lib_a-getenv_r.o)
 .text._findenv_r
                0x0000000000000000      0x144 /opt/devkitpro/devkitPPC/lib/gcc/powerpc-eabi/8.2.0/../../../../powerpc-eabi/lib/libc.a(lib_a-getenv_r.o)
 .text._getenv_r
                0x0000000000000000       0x24 /opt/devkitpro/devkitPPC/lib/gcc/powerpc-eabi/8.2.0/../../../../powerpc-eabi/lib/libc.a(lib_a-getenv_r.o)
 .comment       0x0000000000000000       0x23 /opt/devkitpro/devkitPPC/lib/gcc/powerpc-eabi/8.2.0/../../../../powerpc-eabi/lib/libc.a(lib_a-getenv_r.o)
 .eh_frame      0x0000000000000000       0xac /opt/devkitpro/devkitPPC/lib/gcc/powerpc-eabi/8.2.0/../../../../powerpc-eabi/lib/libc.a(lib_a-getenv_r.o)
 .text          0x0000000000000000        0x0 /opt/devkitpro/devkitPPC/lib/gcc/powerpc-eabi/8.2.0/../../../../powerpc-eabi/lib/libc.a(lib_a-svfprintf.o)
 .data          0x0000000000000000        0x0 /opt/devkitpro/devkitPPC/lib/gcc/powerpc-eabi/8.2.0/../../../../powerpc-eabi/lib/libc.a(lib_a-svfprintf.o)
 .bss           0x0000000000000000        0x0 /opt/devkitpro/devkitPPC/lib/gcc/powerpc-eabi/8.2.0/../../../../powerpc-eabi/lib/libc.a(lib_a-svfprintf.o)
 .comment       0x0000000000000000       0x23 /opt/devkitpro/devkitPPC/lib/gcc/powerpc-eabi/8.2.0/../../../../powerpc-eabi/lib/libc.a(lib_a-svfprintf.o)
 .eh_frame      0x0000000000000000      0x168 /opt/devkitpro/devkitPPC/lib/gcc/powerpc-eabi/8.2.0/../../../../powerpc-eabi/lib/libc.a(lib_a-svfprintf.o)
 .gnu.attributes
                0x0000000000000000       0x10 /opt/devkitpro/devkitPPC/lib/gcc/powerpc-eabi/8.2.0/../../../../powerpc-eabi/lib/libc.a(lib_a-svfprintf.o)
 .text          0x0000000000000000        0x0 /opt/devkitpro/devkitPPC/lib/gcc/powerpc-eabi/8.2.0/../../../../powerpc-eabi/lib/libc.a(lib_a-wcrtomb.o)
 .data          0x0000000000000000        0x0 /opt/devkitpro/devkitPPC/lib/gcc/powerpc-eabi/8.2.0/../../../../powerpc-eabi/lib/libc.a(lib_a-wcrtomb.o)
 .bss           0x0000000000000000        0x0 /opt/devkitpro/devkitPPC/lib/gcc/powerpc-eabi/8.2.0/../../../../powerpc-eabi/lib/libc.a(lib_a-wcrtomb.o)
 .text.wcrtomb  0x0000000000000000       0xe8 /opt/devkitpro/devkitPPC/lib/gcc/powerpc-eabi/8.2.0/../../../../powerpc-eabi/lib/libc.a(lib_a-wcrtomb.o)
 .comment       0x0000000000000000       0x23 /opt/devkitpro/devkitPPC/lib/gcc/powerpc-eabi/8.2.0/../../../../powerpc-eabi/lib/libc.a(lib_a-wcrtomb.o)
 .eh_frame      0x0000000000000000       0x84 /opt/devkitpro/devkitPPC/lib/gcc/powerpc-eabi/8.2.0/../../../../powerpc-eabi/lib/libc.a(lib_a-wcrtomb.o)
 .text          0x0000000000000000        0x0 /opt/devkitpro/devkitPPC/lib/gcc/powerpc-eabi/8.2.0/../../../../powerpc-eabi/lib/libc.a(lib_a-wcsrtombs.o)
 .data          0x0000000000000000        0x0 /opt/devkitpro/devkitPPC/lib/gcc/powerpc-eabi/8.2.0/../../../../powerpc-eabi/lib/libc.a(lib_a-wcsrtombs.o)
 .bss           0x0000000000000000        0x0 /opt/devkitpro/devkitPPC/lib/gcc/powerpc-eabi/8.2.0/../../../../powerpc-eabi/lib/libc.a(lib_a-wcsrtombs.o)
 .text.wcsrtombs
                0x0000000000000000       0x20 /opt/devkitpro/devkitPPC/lib/gcc/powerpc-eabi/8.2.0/../../../../powerpc-eabi/lib/libc.a(lib_a-wcsrtombs.o)
 .comment       0x0000000000000000       0x23 /opt/devkitpro/devkitPPC/lib/gcc/powerpc-eabi/8.2.0/../../../../powerpc-eabi/lib/libc.a(lib_a-wcsrtombs.o)
 .eh_frame      0x0000000000000000       0x3c /opt/devkitpro/devkitPPC/lib/gcc/powerpc-eabi/8.2.0/../../../../powerpc-eabi/lib/libc.a(lib_a-wcsrtombs.o)
 .text          0x0000000000000000        0x0 /opt/devkitpro/devkitPPC/lib/gcc/powerpc-eabi/8.2.0/../../../../powerpc-eabi/lib/libc.a(lib_a-dtoa.o)
 .data          0x0000000000000000        0x0 /opt/devkitpro/devkitPPC/lib/gcc/powerpc-eabi/8.2.0/../../../../powerpc-eabi/lib/libc.a(lib_a-dtoa.o)
 .bss           0x0000000000000000        0x0 /opt/devkitpro/devkitPPC/lib/gcc/powerpc-eabi/8.2.0/../../../../powerpc-eabi/lib/libc.a(lib_a-dtoa.o)
 .comment       0x0000000000000000       0x23 /opt/devkitpro/devkitPPC/lib/gcc/powerpc-eabi/8.2.0/../../../../powerpc-eabi/lib/libc.a(lib_a-dtoa.o)
 .eh_frame      0x0000000000000000      0x1ec /opt/devkitpro/devkitPPC/lib/gcc/powerpc-eabi/8.2.0/../../../../powerpc-eabi/lib/libc.a(lib_a-dtoa.o)
 .gnu.attributes
                0x0000000000000000       0x10 /opt/devkitpro/devkitPPC/lib/gcc/powerpc-eabi/8.2.0/../../../../powerpc-eabi/lib/libc.a(lib_a-dtoa.o)
 .text          0x0000000000000000        0x0 /opt/devkitpro/devkitPPC/lib/gcc/powerpc-eabi/8.2.0/../../../../powerpc-eabi/lib/libc.a(lib_a-environ.o)
 .data          0x0000000000000000        0x0 /opt/devkitpro/devkitPPC/lib/gcc/powerpc-eabi/8.2.0/../../../../powerpc-eabi/lib/libc.a(lib_a-environ.o)
 .bss           0x0000000000000000        0x0 /opt/devkitpro/devkitPPC/lib/gcc/powerpc-eabi/8.2.0/../../../../powerpc-eabi/lib/libc.a(lib_a-environ.o)
 .bss.initial_env
                0x0000000000000000        0x4 /opt/devkitpro/devkitPPC/lib/gcc/powerpc-eabi/8.2.0/../../../../powerpc-eabi/lib/libc.a(lib_a-environ.o)
 .sdata.environ
                0x0000000000000000        0x4 /opt/devkitpro/devkitPPC/lib/gcc/powerpc-eabi/8.2.0/../../../../powerpc-eabi/lib/libc.a(lib_a-environ.o)
 .comment       0x0000000000000000       0x23 /opt/devkitpro/devkitPPC/lib/gcc/powerpc-eabi/8.2.0/../../../../powerpc-eabi/lib/libc.a(lib_a-environ.o)
 .text          0x0000000000000000        0x0 /opt/devkitpro/devkitPPC/lib/gcc/powerpc-eabi/8.2.0/../../../../powerpc-eabi/lib/libc.a(lib_a-envlock.o)
 .data          0x0000000000000000        0x0 /opt/devkitpro/devkitPPC/lib/gcc/powerpc-eabi/8.2.0/../../../../powerpc-eabi/lib/libc.a(lib_a-envlock.o)
 .bss           0x0000000000000000        0x0 /opt/devkitpro/devkitPPC/lib/gcc/powerpc-eabi/8.2.0/../../../../powerpc-eabi/lib/libc.a(lib_a-envlock.o)
 .text.__env_lock
                0x0000000000000000       0x58 /opt/devkitpro/devkitPPC/lib/gcc/powerpc-eabi/8.2.0/../../../../powerpc-eabi/lib/libc.a(lib_a-envlock.o)
 .text.__env_unlock
                0x0000000000000000        0xc /opt/devkitpro/devkitPPC/lib/gcc/powerpc-eabi/8.2.0/../../../../powerpc-eabi/lib/libc.a(lib_a-envlock.o)
 .bss.__env_recursive_mutex
                0x0000000000000000        0x4 /opt/devkitpro/devkitPPC/lib/gcc/powerpc-eabi/8.2.0/../../../../powerpc-eabi/lib/libc.a(lib_a-envlock.o)
 .comment       0x0000000000000000       0x23 /opt/devkitpro/devkitPPC/lib/gcc/powerpc-eabi/8.2.0/../../../../powerpc-eabi/lib/libc.a(lib_a-envlock.o)
 .eh_frame      0x0000000000000000       0x58 /opt/devkitpro/devkitPPC/lib/gcc/powerpc-eabi/8.2.0/../../../../powerpc-eabi/lib/libc.a(lib_a-envlock.o)
 .text          0x0000000000000000        0x0 /opt/devkitpro/devkitPPC/lib/gcc/powerpc-eabi/8.2.0/../../../../powerpc-eabi/lib/libc.a(lib_a-localeconv.o)
 .data          0x0000000000000000        0x0 /opt/devkitpro/devkitPPC/lib/gcc/powerpc-eabi/8.2.0/../../../../powerpc-eabi/lib/libc.a(lib_a-localeconv.o)
 .bss           0x0000000000000000        0x0 /opt/devkitpro/devkitPPC/lib/gcc/powerpc-eabi/8.2.0/../../../../powerpc-eabi/lib/libc.a(lib_a-localeconv.o)
 .text.__localeconv_l
                0x0000000000000000        0x8 /opt/devkitpro/devkitPPC/lib/gcc/powerpc-eabi/8.2.0/../../../../powerpc-eabi/lib/libc.a(lib_a-localeconv.o)
 .text.localeconv
                0x0000000000000000       0x2c /opt/devkitpro/devkitPPC/lib/gcc/powerpc-eabi/8.2.0/../../../../powerpc-eabi/lib/libc.a(lib_a-localeconv.o)
 .comment       0x0000000000000000       0x23 /opt/devkitpro/devkitPPC/lib/gcc/powerpc-eabi/8.2.0/../../../../powerpc-eabi/lib/libc.a(lib_a-localeconv.o)
 .eh_frame      0x0000000000000000       0x50 /opt/devkitpro/devkitPPC/lib/gcc/powerpc-eabi/8.2.0/../../../../powerpc-eabi/lib/libc.a(lib_a-localeconv.o)
 .text          0x0000000000000000        0x0 /opt/devkitpro/devkitPPC/lib/gcc/powerpc-eabi/8.2.0/../../../../powerpc-eabi/lib/libc.a(lib_a-memchr.o)
 .data          0x0000000000000000        0x0 /opt/devkitpro/devkitPPC/lib/gcc/powerpc-eabi/8.2.0/../../../../powerpc-eabi/lib/libc.a(lib_a-memchr.o)
 .bss           0x0000000000000000        0x0 /opt/devkitpro/devkitPPC/lib/gcc/powerpc-eabi/8.2.0/../../../../powerpc-eabi/lib/libc.a(lib_a-memchr.o)
 .comment       0x0000000000000000       0x23 /opt/devkitpro/devkitPPC/lib/gcc/powerpc-eabi/8.2.0/../../../../powerpc-eabi/lib/libc.a(lib_a-memchr.o)
 .eh_frame      0x0000000000000000       0x28 /opt/devkitpro/devkitPPC/lib/gcc/powerpc-eabi/8.2.0/../../../../powerpc-eabi/lib/libc.a(lib_a-memchr.o)
 .text          0x0000000000000000        0x0 /opt/devkitpro/devkitPPC/lib/gcc/powerpc-eabi/8.2.0/../../../../powerpc-eabi/lib/libc.a(lib_a-mprec.o)
 .data          0x0000000000000000        0x0 /opt/devkitpro/devkitPPC/lib/gcc/powerpc-eabi/8.2.0/../../../../powerpc-eabi/lib/libc.a(lib_a-mprec.o)
 .bss           0x0000000000000000        0x0 /opt/devkitpro/devkitPPC/lib/gcc/powerpc-eabi/8.2.0/../../../../powerpc-eabi/lib/libc.a(lib_a-mprec.o)
 .text.__s2b    0x0000000000000000      0x138 /opt/devkitpro/devkitPPC/lib/gcc/powerpc-eabi/8.2.0/../../../../powerpc-eabi/lib/libc.a(lib_a-mprec.o)
 .text.__ulp    0x0000000000000000       0x9c /opt/devkitpro/devkitPPC/lib/gcc/powerpc-eabi/8.2.0/../../../../powerpc-eabi/lib/libc.a(lib_a-mprec.o)
 .text.__b2d    0x0000000000000000      0x184 /opt/devkitpro/devkitPPC/lib/gcc/powerpc-eabi/8.2.0/../../../../powerpc-eabi/lib/libc.a(lib_a-mprec.o)
 .text.__ratio  0x0000000000000000       0xd0 /opt/devkitpro/devkitPPC/lib/gcc/powerpc-eabi/8.2.0/../../../../powerpc-eabi/lib/libc.a(lib_a-mprec.o)
 .text._mprec_log10
                0x0000000000000000       0x3c /opt/devkitpro/devkitPPC/lib/gcc/powerpc-eabi/8.2.0/../../../../powerpc-eabi/lib/libc.a(lib_a-mprec.o)
 .text.__copybits
                0x0000000000000000       0x90 /opt/devkitpro/devkitPPC/lib/gcc/powerpc-eabi/8.2.0/../../../../powerpc-eabi/lib/libc.a(lib_a-mprec.o)
 .text.__any_on
                0x0000000000000000       0x88 /opt/devkitpro/devkitPPC/lib/gcc/powerpc-eabi/8.2.0/../../../../powerpc-eabi/lib/libc.a(lib_a-mprec.o)
 .rodata.__mprec_tinytens
                0x0000000000000000       0x28 /opt/devkitpro/devkitPPC/lib/gcc/powerpc-eabi/8.2.0/../../../../powerpc-eabi/lib/libc.a(lib_a-mprec.o)
 .rodata._mprec_log10.cst4
                0x0000000000000000        0x8 /opt/devkitpro/devkitPPC/lib/gcc/powerpc-eabi/8.2.0/../../../../powerpc-eabi/lib/libc.a(lib_a-mprec.o)
 .comment       0x0000000000000000       0x23 /opt/devkitpro/devkitPPC/lib/gcc/powerpc-eabi/8.2.0/../../../../powerpc-eabi/lib/libc.a(lib_a-mprec.o)
 .eh_frame      0x0000000000000000      0x388 /opt/devkitpro/devkitPPC/lib/gcc/powerpc-eabi/8.2.0/../../../../powerpc-eabi/lib/libc.a(lib_a-mprec.o)
 .gnu.attributes
                0x0000000000000000       0x10 /opt/devkitpro/devkitPPC/lib/gcc/powerpc-eabi/8.2.0/../../../../powerpc-eabi/lib/libc.a(lib_a-mprec.o)
 .text          0x0000000000000000        0x0 /opt/devkitpro/devkitPPC/lib/gcc/powerpc-eabi/8.2.0/../../../../powerpc-eabi/lib/libc.a(lib_a-svfiprintf.o)
 .data          0x0000000000000000        0x0 /opt/devkitpro/devkitPPC/lib/gcc/powerpc-eabi/8.2.0/../../../../powerpc-eabi/lib/libc.a(lib_a-svfiprintf.o)
 .bss           0x0000000000000000        0x0 /opt/devkitpro/devkitPPC/lib/gcc/powerpc-eabi/8.2.0/../../../../powerpc-eabi/lib/libc.a(lib_a-svfiprintf.o)
 .text._svfiprintf_r
                0x0000000000000000     0x1598 /opt/devkitpro/devkitPPC/lib/gcc/powerpc-eabi/8.2.0/../../../../powerpc-eabi/lib/libc.a(lib_a-svfiprintf.o)
 .rodata._svfiprintf_r
                0x0000000000000000      0x164 /opt/devkitpro/devkitPPC/lib/gcc/powerpc-eabi/8.2.0/../../../../powerpc-eabi/lib/libc.a(lib_a-svfiprintf.o)
 .rodata._svfiprintf_r.str1.4
                0x0000000000000000       0x2f /opt/devkitpro/devkitPPC/lib/gcc/powerpc-eabi/8.2.0/../../../../powerpc-eabi/lib/libc.a(lib_a-svfiprintf.o)
 .rodata.blanks.5761
                0x0000000000000000       0x10 /opt/devkitpro/devkitPPC/lib/gcc/powerpc-eabi/8.2.0/../../../../powerpc-eabi/lib/libc.a(lib_a-svfiprintf.o)
 .rodata.zeroes.5762
                0x0000000000000000       0x10 /opt/devkitpro/devkitPPC/lib/gcc/powerpc-eabi/8.2.0/../../../../powerpc-eabi/lib/libc.a(lib_a-svfiprintf.o)
 .comment       0x0000000000000000       0x23 /opt/devkitpro/devkitPPC/lib/gcc/powerpc-eabi/8.2.0/../../../../powerpc-eabi/lib/libc.a(lib_a-svfiprintf.o)
 .eh_frame      0x0000000000000000      0x198 /opt/devkitpro/devkitPPC/lib/gcc/powerpc-eabi/8.2.0/../../../../powerpc-eabi/lib/libc.a(lib_a-svfiprintf.o)
 .text          0x0000000000000000        0x0 /opt/devkitpro/devkitPPC/lib/gcc/powerpc-eabi/8.2.0/../../../../powerpc-eabi/lib/libc.a(lib_a-wcsnrtombs.o)
 .data          0x0000000000000000        0x0 /opt/devkitpro/devkitPPC/lib/gcc/powerpc-eabi/8.2.0/../../../../powerpc-eabi/lib/libc.a(lib_a-wcsnrtombs.o)
 .bss           0x0000000000000000        0x0 /opt/devkitpro/devkitPPC/lib/gcc/powerpc-eabi/8.2.0/../../../../powerpc-eabi/lib/libc.a(lib_a-wcsnrtombs.o)
 .text.wcsnrtombs
                0x0000000000000000       0x50 /opt/devkitpro/devkitPPC/lib/gcc/powerpc-eabi/8.2.0/../../../../powerpc-eabi/lib/libc.a(lib_a-wcsnrtombs.o)
 .comment       0x0000000000000000       0x23 /opt/devkitpro/devkitPPC/lib/gcc/powerpc-eabi/8.2.0/../../../../powerpc-eabi/lib/libc.a(lib_a-wcsnrtombs.o)
 .eh_frame      0x0000000000000000       0xe4 /opt/devkitpro/devkitPPC/lib/gcc/powerpc-eabi/8.2.0/../../../../powerpc-eabi/lib/libc.a(lib_a-wcsnrtombs.o)
 .text          0x0000000000000000        0x0 /opt/devkitpro/devkitPPC/lib/gcc/powerpc-eabi/8.2.0/../../../../powerpc-eabi/lib/libc.a(lib_a-memmove.o)
 .data          0x0000000000000000        0x0 /opt/devkitpro/devkitPPC/lib/gcc/powerpc-eabi/8.2.0/../../../../powerpc-eabi/lib/libc.a(lib_a-memmove.o)
 .bss           0x0000000000000000        0x0 /opt/devkitpro/devkitPPC/lib/gcc/powerpc-eabi/8.2.0/../../../../powerpc-eabi/lib/libc.a(lib_a-memmove.o)
 .comment       0x0000000000000000       0x23 /opt/devkitpro/devkitPPC/lib/gcc/powerpc-eabi/8.2.0/../../../../powerpc-eabi/lib/libc.a(lib_a-memmove.o)
 .eh_frame      0x0000000000000000       0x28 /opt/devkitpro/devkitPPC/lib/gcc/powerpc-eabi/8.2.0/../../../../powerpc-eabi/lib/libc.a(lib_a-memmove.o)
 .text          0x0000000000000000        0x0 /opt/devkitpro/devkitPPC/lib/gcc/powerpc-eabi/8.2.0/../../../../powerpc-eabi/lib/libsysbase.a(close.o)
 .data          0x0000000000000000        0x0 /opt/devkitpro/devkitPPC/lib/gcc/powerpc-eabi/8.2.0/../../../../powerpc-eabi/lib/libsysbase.a(close.o)
 .bss           0x0000000000000000        0x0 /opt/devkitpro/devkitPPC/lib/gcc/powerpc-eabi/8.2.0/../../../../powerpc-eabi/lib/libsysbase.a(close.o)
 .comment       0x0000000000000000       0x23 /opt/devkitpro/devkitPPC/lib/gcc/powerpc-eabi/8.2.0/../../../../powerpc-eabi/lib/libsysbase.a(close.o)
 .eh_frame      0x0000000000000000       0x68 /opt/devkitpro/devkitPPC/lib/gcc/powerpc-eabi/8.2.0/../../../../powerpc-eabi/lib/libsysbase.a(close.o)
 .text          0x0000000000000000        0x0 /opt/devkitpro/devkitPPC/lib/gcc/powerpc-eabi/8.2.0/../../../../powerpc-eabi/lib/libsysbase.a(fstat.o)
 .data          0x0000000000000000        0x0 /opt/devkitpro/devkitPPC/lib/gcc/powerpc-eabi/8.2.0/../../../../powerpc-eabi/lib/libsysbase.a(fstat.o)
 .bss           0x0000000000000000        0x0 /opt/devkitpro/devkitPPC/lib/gcc/powerpc-eabi/8.2.0/../../../../powerpc-eabi/lib/libsysbase.a(fstat.o)
 .comment       0x0000000000000000       0x23 /opt/devkitpro/devkitPPC/lib/gcc/powerpc-eabi/8.2.0/../../../../powerpc-eabi/lib/libsysbase.a(fstat.o)
 .eh_frame      0x0000000000000000       0x48 /opt/devkitpro/devkitPPC/lib/gcc/powerpc-eabi/8.2.0/../../../../powerpc-eabi/lib/libsysbase.a(fstat.o)
 .text          0x0000000000000000        0x0 /opt/devkitpro/devkitPPC/lib/gcc/powerpc-eabi/8.2.0/../../../../powerpc-eabi/lib/libsysbase.a(lseek.o)
 .data          0x0000000000000000        0x0 /opt/devkitpro/devkitPPC/lib/gcc/powerpc-eabi/8.2.0/../../../../powerpc-eabi/lib/libsysbase.a(lseek.o)
 .bss           0x0000000000000000        0x0 /opt/devkitpro/devkitPPC/lib/gcc/powerpc-eabi/8.2.0/../../../../powerpc-eabi/lib/libsysbase.a(lseek.o)
 .comment       0x0000000000000000       0x23 /opt/devkitpro/devkitPPC/lib/gcc/powerpc-eabi/8.2.0/../../../../powerpc-eabi/lib/libsysbase.a(lseek.o)
 .eh_frame      0x0000000000000000       0x50 /opt/devkitpro/devkitPPC/lib/gcc/powerpc-eabi/8.2.0/../../../../powerpc-eabi/lib/libsysbase.a(lseek.o)
 .text          0x0000000000000000        0x0 /opt/devkitpro/devkitPPC/lib/gcc/powerpc-eabi/8.2.0/../../../../powerpc-eabi/lib/libsysbase.a(open.o)
 .data          0x0000000000000000        0x0 /opt/devkitpro/devkitPPC/lib/gcc/powerpc-eabi/8.2.0/../../../../powerpc-eabi/lib/libsysbase.a(open.o)
 .bss           0x0000000000000000        0x0 /opt/devkitpro/devkitPPC/lib/gcc/powerpc-eabi/8.2.0/../../../../powerpc-eabi/lib/libsysbase.a(open.o)
 .comment       0x0000000000000000       0x23 /opt/devkitpro/devkitPPC/lib/gcc/powerpc-eabi/8.2.0/../../../../powerpc-eabi/lib/libsysbase.a(open.o)
 .eh_frame      0x0000000000000000       0x7c /opt/devkitpro/devkitPPC/lib/gcc/powerpc-eabi/8.2.0/../../../../powerpc-eabi/lib/libsysbase.a(open.o)
 .text          0x0000000000000000        0x0 /opt/devkitpro/devkitPPC/lib/gcc/powerpc-eabi/8.2.0/../../../../powerpc-eabi/lib/libsysbase.a(read.o)
 .data          0x0000000000000000        0x0 /opt/devkitpro/devkitPPC/lib/gcc/powerpc-eabi/8.2.0/../../../../powerpc-eabi/lib/libsysbase.a(read.o)
 .bss           0x0000000000000000        0x0 /opt/devkitpro/devkitPPC/lib/gcc/powerpc-eabi/8.2.0/../../../../powerpc-eabi/lib/libsysbase.a(read.o)
 .comment       0x0000000000000000       0x23 /opt/devkitpro/devkitPPC/lib/gcc/powerpc-eabi/8.2.0/../../../../powerpc-eabi/lib/libsysbase.a(read.o)
 .eh_frame      0x0000000000000000       0x4c /opt/devkitpro/devkitPPC/lib/gcc/powerpc-eabi/8.2.0/../../../../powerpc-eabi/lib/libsysbase.a(read.o)
 .text          0x0000000000000000        0x0 /opt/devkitpro/devkitPPC/lib/gcc/powerpc-eabi/8.2.0/../../../../powerpc-eabi/lib/libsysbase.a(stat.o)
 .data          0x0000000000000000        0x0 /opt/devkitpro/devkitPPC/lib/gcc/powerpc-eabi/8.2.0/../../../../powerpc-eabi/lib/libsysbase.a(stat.o)
 .bss           0x0000000000000000        0x0 /opt/devkitpro/devkitPPC/lib/gcc/powerpc-eabi/8.2.0/../../../../powerpc-eabi/lib/libsysbase.a(stat.o)
 .comment       0x0000000000000000       0x23 /opt/devkitpro/devkitPPC/lib/gcc/powerpc-eabi/8.2.0/../../../../powerpc-eabi/lib/libsysbase.a(stat.o)
 .eh_frame      0x0000000000000000       0x50 /opt/devkitpro/devkitPPC/lib/gcc/powerpc-eabi/8.2.0/../../../../powerpc-eabi/lib/libsysbase.a(stat.o)
 .text          0x0000000000000000        0x0 /opt/devkitpro/devkitPPC/lib/gcc/powerpc-eabi/8.2.0/../../../../powerpc-eabi/lib/libsysbase.a(write.o)
 .data          0x0000000000000000        0x0 /opt/devkitpro/devkitPPC/lib/gcc/powerpc-eabi/8.2.0/../../../../powerpc-eabi/lib/libsysbase.a(write.o)
 .bss           0x0000000000000000        0x0 /opt/devkitpro/devkitPPC/lib/gcc/powerpc-eabi/8.2.0/../../../../powerpc-eabi/lib/libsysbase.a(write.o)
 .comment       0x0000000000000000       0x23 /opt/devkitpro/devkitPPC/lib/gcc/powerpc-eabi/8.2.0/../../../../powerpc-eabi/lib/libsysbase.a(write.o)
 .eh_frame      0x0000000000000000       0x4c /opt/devkitpro/devkitPPC/lib/gcc/powerpc-eabi/8.2.0/../../../../powerpc-eabi/lib/libsysbase.a(write.o)
 .text          0x0000000000000000        0x0 /opt/devkitpro/devkitPPC/lib/gcc/powerpc-eabi/8.2.0/../../../../powerpc-eabi/lib/libsysbase.a(handle_manager.o)
 .data          0x0000000000000000        0x0 /opt/devkitpro/devkitPPC/lib/gcc/powerpc-eabi/8.2.0/../../../../powerpc-eabi/lib/libsysbase.a(handle_manager.o)
 .bss           0x0000000000000000        0x0 /opt/devkitpro/devkitPPC/lib/gcc/powerpc-eabi/8.2.0/../../../../powerpc-eabi/lib/libsysbase.a(handle_manager.o)
 .text.__free_handle
                0x0000000000000000       0x3c /opt/devkitpro/devkitPPC/lib/gcc/powerpc-eabi/8.2.0/../../../../powerpc-eabi/lib/libsysbase.a(handle_manager.o)
 .text.dup      0x0000000000000000       0xe0 /opt/devkitpro/devkitPPC/lib/gcc/powerpc-eabi/8.2.0/../../../../powerpc-eabi/lib/libsysbase.a(handle_manager.o)
 .text.dup2     0x0000000000000000      0x1c8 /opt/devkitpro/devkitPPC/lib/gcc/powerpc-eabi/8.2.0/../../../../powerpc-eabi/lib/libsysbase.a(handle_manager.o)
 .comment       0x0000000000000000       0x23 /opt/devkitpro/devkitPPC/lib/gcc/powerpc-eabi/8.2.0/../../../../powerpc-eabi/lib/libsysbase.a(handle_manager.o)
 .eh_frame      0x0000000000000000      0x114 /opt/devkitpro/devkitPPC/lib/gcc/powerpc-eabi/8.2.0/../../../../powerpc-eabi/lib/libsysbase.a(handle_manager.o)
 .text          0x0000000000000000        0x0 /opt/devkitpro/devkitPPC/lib/gcc/powerpc-eabi/8.2.0/libgcc.a(_umoddi3.o)
 .data          0x0000000000000000        0x0 /opt/devkitpro/devkitPPC/lib/gcc/powerpc-eabi/8.2.0/libgcc.a(_umoddi3.o)
 .bss           0x0000000000000000        0x0 /opt/devkitpro/devkitPPC/lib/gcc/powerpc-eabi/8.2.0/libgcc.a(_umoddi3.o)
 .comment       0x0000000000000000       0x23 /opt/devkitpro/devkitPPC/lib/gcc/powerpc-eabi/8.2.0/libgcc.a(_umoddi3.o)
 .eh_frame      0x0000000000000000       0x4c /opt/devkitpro/devkitPPC/lib/gcc/powerpc-eabi/8.2.0/libgcc.a(_umoddi3.o)
 .text          0x0000000000000000       0x10 /opt/devkitpro/devkitPPC/lib/gcc/powerpc-eabi/8.2.0/crtend.o
 .data          0x0000000000000000        0x0 /opt/devkitpro/devkitPPC/lib/gcc/powerpc-eabi/8.2.0/crtend.o
 .bss           0x0000000000000000        0x0 /opt/devkitpro/devkitPPC/lib/gcc/powerpc-eabi/8.2.0/crtend.o
 .ctors         0x0000000000000000        0x4 /opt/devkitpro/devkitPPC/lib/gcc/powerpc-eabi/8.2.0/crtend.o
 .dtors         0x0000000000000000        0x4 /opt/devkitpro/devkitPPC/lib/gcc/powerpc-eabi/8.2.0/crtend.o
 .eh_frame      0x0000000000000000        0x4 /opt/devkitpro/devkitPPC/lib/gcc/powerpc-eabi/8.2.0/crtend.o
 .tm_clone_table
                0x0000000000000000        0x0 /opt/devkitpro/devkitPPC/lib/gcc/powerpc-eabi/8.2.0/crtend.o
 .text.__do_global_ctors_aux
                0x0000000000000000       0x50 /opt/devkitpro/devkitPPC/lib/gcc/powerpc-eabi/8.2.0/crtend.o
 .text.call___do_global_ctors_aux
                0x0000000000000000        0xc /opt/devkitpro/devkitPPC/lib/gcc/powerpc-eabi/8.2.0/crtend.o
 .init          0x0000000000000000        0x4 /opt/devkitpro/devkitPPC/lib/gcc/powerpc-eabi/8.2.0/crtend.o
 .comment       0x0000000000000000       0x23 /opt/devkitpro/devkitPPC/lib/gcc/powerpc-eabi/8.2.0/crtend.o
 .text          0x0000000000000000        0x0 /opt/devkitpro/devkitPPC/lib/gcc/powerpc-eabi/8.2.0/ecrtn.o
 .data          0x0000000000000000        0x0 /opt/devkitpro/devkitPPC/lib/gcc/powerpc-eabi/8.2.0/ecrtn.o
 .bss           0x0000000000000000        0x0 /opt/devkitpro/devkitPPC/lib/gcc/powerpc-eabi/8.2.0/ecrtn.o
 .comment       0x0000000000000000        0xe /opt/devkitpro/devkitPPC/lib/gcc/powerpc-eabi/8.2.0/ecrtn.o
 .got           0x0000000000000000        0x0 /opt/devkitpro/devkitPPC/lib/gcc/powerpc-eabi/8.2.0/ecrtn.o
 .got1          0x0000000000000000        0x0 /opt/devkitpro/devkitPPC/lib/gcc/powerpc-eabi/8.2.0/ecrtn.o
 .got2          0x0000000000000000        0x0 /opt/devkitpro/devkitPPC/lib/gcc/powerpc-eabi/8.2.0/ecrtn.o
 .fixup         0x0000000000000000        0x0 /opt/devkitpro/devkitPPC/lib/gcc/powerpc-eabi/8.2.0/ecrtn.o
 .ctors         0x0000000000000000        0x0 /opt/devkitpro/devkitPPC/lib/gcc/powerpc-eabi/8.2.0/ecrtn.o
 .dtors         0x0000000000000000        0x0 /opt/devkitpro/devkitPPC/lib/gcc/powerpc-eabi/8.2.0/ecrtn.o
 .sdata         0x0000000000000000        0x0 /opt/devkitpro/devkitPPC/lib/gcc/powerpc-eabi/8.2.0/ecrtn.o
 .sbss          0x0000000000000000        0x0 /opt/devkitpro/devkitPPC/lib/gcc/powerpc-eabi/8.2.0/ecrtn.o
 .sdata2        0x0000000000000000        0x0 /opt/devkitpro/devkitPPC/lib/gcc/powerpc-eabi/8.2.0/ecrtn.o
 .sbss2         0x0000000000000000        0x0 /opt/devkitpro/devkitPPC/lib/gcc/powerpc-eabi/8.2.0/ecrtn.o
 .gcc_except_table
                0x0000000000000000        0x0 /opt/devkitpro/devkitPPC/lib/gcc/powerpc-eabi/8.2.0/ecrtn.o
 .eh_frame      0x0000000000000000        0x4 /opt/devkitpro/devkitPPC/lib/gcc/powerpc-eabi/8.2.0/ecrtn.o
 .init          0x0000000000000000       0x10 /opt/devkitpro/devkitPPC/lib/gcc/powerpc-eabi/8.2.0/ecrtn.o
 .fini          0x0000000000000000       0x10 /opt/devkitpro/devkitPPC/lib/gcc/powerpc-eabi/8.2.0/ecrtn.o

Memory Configuration

Name             Origin             Length             Attributes
*default*        0x0000000000000000 0xffffffffffffffff

Linker script and memory map

LOAD /opt/devkitpro/devkitPPC/lib/gcc/powerpc-eabi/8.2.0/ecrti.o
LOAD /opt/devkitpro/devkitPPC/lib/gcc/powerpc-eabi/8.2.0/crtbegin.o
LOAD main.o
LOAD Texture2DShader.o
LOAD /opt/wut/lib/libwutmalloc.a
LOAD /opt/devkitpro/wups/lib/libwups.a
LOAD /opt/wut/lib/libutilswut.a
LOAD /opt/wut/lib/libcoreinit.a
LOAD /opt/wut/lib/libnsysnet.a
LOAD /opt/wut/lib/libgx2.a
LOAD /opt/wut/lib/libgfd.a
LOAD /opt/devkitpro/devkitPPC/lib/gcc/powerpc-eabi/8.2.0/../../../../powerpc-eabi/lib/libstdc++.a
LOAD /opt/devkitpro/devkitPPC/lib/gcc/powerpc-eabi/8.2.0/../../../../powerpc-eabi/lib/libm.a
LOAD /opt/devkitpro/devkitPPC/lib/gcc/powerpc-eabi/8.2.0/libgcc.a
START GROUP
LOAD /opt/devkitpro/devkitPPC/lib/gcc/powerpc-eabi/8.2.0/../../../../powerpc-eabi/lib/libsysbase.a
LOAD /opt/devkitpro/devkitPPC/lib/gcc/powerpc-eabi/8.2.0/../../../../powerpc-eabi/lib/libc.a
END GROUP
LOAD /opt/devkitpro/devkitPPC/lib/gcc/powerpc-eabi/8.2.0/libgcc.a
LOAD /opt/devkitpro/devkitPPC/lib/gcc/powerpc-eabi/8.2.0/crtend.o
LOAD /opt/devkitpro/devkitPPC/lib/gcc/powerpc-eabi/8.2.0/ecrtn.o

.text           0x0000000000000000     0xf104
 *(.text*)
 .text._Z7init_fs26wups_loader_init_fs_args_t
                0x0000000000000000       0x34 main.o
                0x0000000000000000                _Z7init_fs26wups_loader_init_fs_args_t
 .text._Z11init_pluginv
                0x0000000000000034       0x44 main.o
                0x0000000000000034                _Z11init_pluginv
 .text._Z13deinit_pluginv
                0x0000000000000078       0x44 main.o
                0x0000000000000078                _Z13deinit_pluginv
 .text._Z15on_app_starting30wups_loader_app_started_args_t
                0x00000000000000bc       0xc0 main.o
                0x00000000000000bc                _Z15on_app_starting30wups_loader_app_started_args_t
 .text._Z13on_app_endingv
                0x000000000000017c       0xa4 main.o
                0x000000000000017c                _Z13on_app_endingv
 .text._ZN15Texture2DShader8instanceEv
                0x0000000000000220       0x54 main.o
                0x0000000000000220                _ZN15Texture2DShader8instanceEv
 .text._Z33my_GX2CopyColorBufferToScanBufferP14GX2ColorBuffer13GX2ScanTarget
                0x0000000000000274      0x374 main.o
                0x0000000000000274                _Z33my_GX2CopyColorBufferToScanBufferP14GX2ColorBuffer13GX2ScanTarget
 .text._ZN11FetchShaderD2Ev
                0x00000000000005e8       0x58 Texture2DShader.o
                0x00000000000005e8                _ZN11FetchShaderD1Ev
                0x00000000000005e8                _ZN11FetchShaderD2Ev
 .text._ZN11FetchShaderD0Ev
                0x0000000000000640       0x30 Texture2DShader.o
                0x0000000000000640                _ZN11FetchShaderD0Ev
 .text._ZN12VertexShaderD2Ev
                0x0000000000000670      0x178 Texture2DShader.o
                0x0000000000000670                _ZN12VertexShaderD1Ev
                0x0000000000000670                _ZN12VertexShaderD2Ev
 .text._ZN12VertexShaderD0Ev
                0x00000000000007e8       0x30 Texture2DShader.o
                0x00000000000007e8                _ZN12VertexShaderD0Ev
 .text._ZN11PixelShaderD2Ev
                0x0000000000000818      0x128 Texture2DShader.o
                0x0000000000000818                _ZN11PixelShaderD1Ev
                0x0000000000000818                _ZN11PixelShaderD2Ev
 .text._ZN11PixelShaderD0Ev
                0x0000000000000940       0x30 Texture2DShader.o
                0x0000000000000940                _ZN11PixelShaderD0Ev
 .text._ZN15Texture2DShaderD2Ev
                0x0000000000000970       0x94 Texture2DShader.o
                0x0000000000000970                _ZN15Texture2DShaderD1Ev
                0x0000000000000970                _ZN15Texture2DShaderD2Ev
 .text._ZN15Texture2DShaderD0Ev
                0x0000000000000a04       0x30 Texture2DShader.o
                0x0000000000000a04                _ZN15Texture2DShaderD0Ev
 .text._ZN12VertexShader13addUniformVarERK13GX2UniformVar
                0x0000000000000a34       0xc4 Texture2DShader.o
                0x0000000000000a34                _ZN12VertexShader13addUniformVarERK13GX2UniformVar
 .text._ZN12VertexShader12addAttribVarERK12GX2AttribVar
                0x0000000000000af8       0xbc Texture2DShader.o
                0x0000000000000af8                _ZN12VertexShader12addAttribVarERK12GX2AttribVar
 .text._ZN11PixelShader13addUniformVarERK13GX2UniformVar
                0x0000000000000bb4       0xc4 Texture2DShader.o
                0x0000000000000bb4                _ZN11PixelShader13addUniformVarERK13GX2UniformVar
 .text._ZN11PixelShader13addSamplerVarERK13GX2SamplerVar
                0x0000000000000c78       0xb4 Texture2DShader.o
                0x0000000000000c78                _ZN11PixelShader13addSamplerVarERK13GX2SamplerVar
 .text._ZN15Texture2DShaderC2Ev
                0x0000000000000d2c      0x534 Texture2DShader.o
                0x0000000000000d2c                _ZN15Texture2DShaderC2Ev
                0x0000000000000d2c                _ZN15Texture2DShaderC1Ev
 .text          0x0000000000001260      0x3f0 /opt/wut/lib/libwutmalloc.a(wut_malloc.c.obj)
                0x0000000000001260                _malloc_r
                0x00000000000012b0                _free_r
                0x00000000000012fc                _realloc_r
                0x0000000000001394                _calloc_r
                0x0000000000001418                _memalign_r
                0x0000000000001474                _mallinfo_r
                0x00000000000014e4                _malloc_stats_r
                0x0000000000001508                _mallopt_r
                0x0000000000001538                _malloc_usable_size_r
                0x000000000000157c                _valloc_r
                0x00000000000015c8                _pvalloc_r
                0x0000000000001624                _malloc_trim_r
 .text          0x0000000000001650      0x198 /opt/devkitpro/wups/lib/libwups.a(fs_function_wrapper.o)
                0x0000000000001650                WUPS_InitFS
                0x00000000000016b4                __wrap_open
                0x00000000000016d0                __wrap_close
                0x00000000000016ec                __wrap_write
                0x0000000000001708                __wrap_read
                0x0000000000001724                __wrap_lseek
                0x0000000000001740                __wrap_stat
                0x000000000000175c                __wrap_fstat
                0x0000000000001778                __wrap_opendir
                0x0000000000001794                __wrap_closedir
                0x00000000000017b0                __wrap_readdir
                0x00000000000017cc                __wrap_mkdir
 .text          0x00000000000017e8      0x418 /opt/wut/lib/libutilswut.a(logger.c.obj)
                0x00000000000017e8                log_init_
                0x00000000000018c0                log_print_
                0x0000000000001a54                OSFatal_printf
                0x0000000000001b20                log_printf_
 .text._Znaj    0x0000000000001c00        0x4 /opt/devkitpro/devkitPPC/lib/gcc/powerpc-eabi/8.2.0/../../../../powerpc-eabi/lib/libstdc++.a(new_opv.o)
                0x0000000000001c00                _Znaj
 .text._Znwj    0x0000000000001c04       0x80 /opt/devkitpro/devkitPPC/lib/gcc/powerpc-eabi/8.2.0/../../../../powerpc-eabi/lib/libstdc++.a(new_op.o)
                0x0000000000001c04                _Znwj
 .text._ZNKSt9bad_alloc4whatEv
                0x0000000000001c84        0xc /opt/devkitpro/devkitPPC/lib/gcc/powerpc-eabi/8.2.0/../../../../powerpc-eabi/lib/libstdc++.a(bad_alloc.o)
                0x0000000000001c84                _ZNKSt9bad_alloc4whatEv
 .text._ZNSt9bad_allocD2Ev
                0x0000000000001c90       0x10 /opt/devkitpro/devkitPPC/lib/gcc/powerpc-eabi/8.2.0/../../../../powerpc-eabi/lib/libstdc++.a(bad_alloc.o)
                0x0000000000001c90                _ZNSt9bad_allocD2Ev
                0x0000000000001c90                _ZNSt9bad_allocD1Ev
 .text._ZNSt9bad_allocD0Ev
                0x0000000000001ca0       0x40 /opt/devkitpro/devkitPPC/lib/gcc/powerpc-eabi/8.2.0/../../../../powerpc-eabi/lib/libstdc++.a(bad_alloc.o)
                0x0000000000001ca0                _ZNSt9bad_allocD0Ev
 .text._ZL16get_adjusted_ptrPKSt9type_infoS1_PPv
                0x0000000000001ce0       0x98 /opt/devkitpro/devkitPPC/lib/gcc/powerpc-eabi/8.2.0/../../../../powerpc-eabi/lib/libstdc++.a(eh_personality.o)
 .text._ZL28read_encoded_value_with_basehjPKhPj
                0x0000000000001d78      0x144 /opt/devkitpro/devkitPPC/lib/gcc/powerpc-eabi/8.2.0/../../../../powerpc-eabi/lib/libstdc++.a(eh_personality.o)
 .text._ZL15get_ttype_entryP16lsda_header_infom
                0x0000000000001ebc      0x104 /opt/devkitpro/devkitPPC/lib/gcc/powerpc-eabi/8.2.0/../../../../powerpc-eabi/lib/libstdc++.a(eh_personality.o)
 .text._ZL20check_exception_specP16lsda_header_infoPKSt9type_infoPvl
                0x0000000000001fc0       0xb8 /opt/devkitpro/devkitPPC/lib/gcc/powerpc-eabi/8.2.0/../../../../powerpc-eabi/lib/libstdc++.a(eh_personality.o)
 .text._ZL21base_of_encoded_valuehP15_Unwind_Context
                0x0000000000002078       0x70 /opt/devkitpro/devkitPPC/lib/gcc/powerpc-eabi/8.2.0/../../../../powerpc-eabi/lib/libstdc++.a(eh_personality.o)
 .text._ZL17parse_lsda_headerP15_Unwind_ContextPKhP16lsda_header_info
                0x00000000000020e8      0x134 /opt/devkitpro/devkitPPC/lib/gcc/powerpc-eabi/8.2.0/../../../../powerpc-eabi/lib/libstdc++.a(eh_personality.o)
 .text.__gxx_personality_v0
                0x000000000000221c      0x6b8 /opt/devkitpro/devkitPPC/lib/gcc/powerpc-eabi/8.2.0/../../../../powerpc-eabi/lib/libstdc++.a(eh_personality.o)
                0x000000000000221c                __gxx_personality_v0
 .text.__cxa_call_unexpected
                0x00000000000028d4       0xf8 /opt/devkitpro/devkitPPC/lib/gcc/powerpc-eabi/8.2.0/../../../../powerpc-eabi/lib/libstdc++.a(eh_personality.o)
                0x00000000000028d4                __cxa_call_unexpected
 .text._ZNK10__cxxabiv117__class_type_info11__do_upcastEPKS0_PPv
                0x00000000000029cc       0x78 /opt/devkitpro/devkitPPC/lib/gcc/powerpc-eabi/8.2.0/../../../../powerpc-eabi/lib/libstdc++.a(class_type_info.o)
                0x00000000000029cc                _ZNK10__cxxabiv117__class_type_info11__do_upcastEPKS0_PPv
 .text._ZNK10__cxxabiv117__class_type_info20__do_find_public_srcEiPKvPKS0_S2_
                0x0000000000002a44       0x14 /opt/devkitpro/devkitPPC/lib/gcc/powerpc-eabi/8.2.0/../../../../powerpc-eabi/lib/libstdc++.a(class_type_info.o)
                0x0000000000002a44                _ZNK10__cxxabiv117__class_type_info20__do_find_public_srcEiPKvPKS0_S2_
 .text._ZN10__cxxabiv117__class_type_infoD2Ev
                0x0000000000002a58       0x10 /opt/devkitpro/devkitPPC/lib/gcc/powerpc-eabi/8.2.0/../../../../powerpc-eabi/lib/libstdc++.a(class_type_info.o)
                0x0000000000002a58                _ZN10__cxxabiv117__class_type_infoD1Ev
                0x0000000000002a58                _ZN10__cxxabiv117__class_type_infoD2Ev
 .text._ZN10__cxxabiv117__class_type_infoD0Ev
                0x0000000000002a68       0x40 /opt/devkitpro/devkitPPC/lib/gcc/powerpc-eabi/8.2.0/../../../../powerpc-eabi/lib/libstdc++.a(class_type_info.o)
                0x0000000000002a68                _ZN10__cxxabiv117__class_type_infoD0Ev
 .text._ZNK10__cxxabiv117__class_type_info12__do_dyncastEiNS0_10__sub_kindEPKS0_PKvS3_S5_RNS0_16__dyncast_resultE
                0x0000000000002aa8      0x118 /opt/devkitpro/devkitPPC/lib/gcc/powerpc-eabi/8.2.0/../../../../powerpc-eabi/lib/libstdc++.a(class_type_info.o)
                0x0000000000002aa8                _ZNK10__cxxabiv117__class_type_info12__do_dyncastEiNS0_10__sub_kindEPKS0_PKvS3_S5_RNS0_16__dyncast_resultE
 .text._ZNK10__cxxabiv117__class_type_info11__do_upcastEPKS0_PKvRNS0_15__upcast_resultE
                0x0000000000002bc0       0x7c /opt/devkitpro/devkitPPC/lib/gcc/powerpc-eabi/8.2.0/../../../../powerpc-eabi/lib/libstdc++.a(class_type_info.o)
                0x0000000000002bc0                _ZNK10__cxxabiv117__class_type_info11__do_upcastEPKS0_PKvRNS0_15__upcast_resultE
 .text._ZNK10__cxxabiv117__class_type_info10__do_catchEPKSt9type_infoPPvj
                0x0000000000002c3c       0xe4 /opt/devkitpro/devkitPPC/lib/gcc/powerpc-eabi/8.2.0/../../../../powerpc-eabi/lib/libstdc++.a(class_type_info.o)
                0x0000000000002c3c                _ZNK10__cxxabiv117__class_type_info10__do_catchEPKSt9type_infoPPvj
 .text._ZdaPv   0x0000000000002d20        0x4 /opt/devkitpro/devkitPPC/lib/gcc/powerpc-eabi/8.2.0/../../../../powerpc-eabi/lib/libstdc++.a(del_opv.o)
                0x0000000000002d20                _ZdaPv
 .text._ZSt15get_new_handlerv
                0x0000000000002d24       0x18 /opt/devkitpro/devkitPPC/lib/gcc/powerpc-eabi/8.2.0/../../../../powerpc-eabi/lib/libstdc++.a(new_handler.o)
                0x0000000000002d24                _ZSt15get_new_handlerv
 .text._ZNSt9exceptionD2Ev
                0x0000000000002d3c        0x4 /opt/devkitpro/devkitPPC/lib/gcc/powerpc-eabi/8.2.0/../../../../powerpc-eabi/lib/libstdc++.a(eh_exception.o)
                0x0000000000002d3c                _ZNSt9exceptionD2Ev
                0x0000000000002d3c                _ZNSt9exceptionD1Ev
 .text._ZNSt13bad_exceptionD2Ev
                0x0000000000002d40        0x4 /opt/devkitpro/devkitPPC/lib/gcc/powerpc-eabi/8.2.0/../../../../powerpc-eabi/lib/libstdc++.a(eh_exception.o)
                0x0000000000002d40                _ZNSt13bad_exceptionD2Ev
                0x0000000000002d40                _ZNSt13bad_exceptionD1Ev
 .text._ZNKSt13bad_exception4whatEv
                0x0000000000002d44        0xc /opt/devkitpro/devkitPPC/lib/gcc/powerpc-eabi/8.2.0/../../../../powerpc-eabi/lib/libstdc++.a(eh_exception.o)
                0x0000000000002d44                _ZGTtNKSt13bad_exception4whatEv
                0x0000000000002d44                _ZNKSt13bad_exception4whatEv
 .text._ZNSt13bad_exceptionD0Ev
                0x0000000000002d50        0x8 /opt/devkitpro/devkitPPC/lib/gcc/powerpc-eabi/8.2.0/../../../../powerpc-eabi/lib/libstdc++.a(eh_exception.o)
                0x0000000000002d50                _ZNSt13bad_exceptionD0Ev
 .text._ZdlPvj  0x0000000000002d58        0x4 /opt/devkitpro/devkitPPC/lib/gcc/powerpc-eabi/8.2.0/../../../../powerpc-eabi/lib/libstdc++.a(del_ops.o)
                0x0000000000002d58                _ZdlPvj
 .text._ZL23__gxx_exception_cleanup19_Unwind_Reason_CodeP17_Unwind_Exception
                0x0000000000002d5c       0x8c /opt/devkitpro/devkitPPC/lib/gcc/powerpc-eabi/8.2.0/../../../../powerpc-eabi/lib/libstdc++.a(eh_throw.o)
 .text.__cxa_throw
                0x0000000000002de8       0x9c /opt/devkitpro/devkitPPC/lib/gcc/powerpc-eabi/8.2.0/../../../../powerpc-eabi/lib/libstdc++.a(eh_throw.o)
                0x0000000000002de8                __cxa_throw
 .text.__cxa_rethrow
                0x0000000000002e84       0x8c /opt/devkitpro/devkitPPC/lib/gcc/powerpc-eabi/8.2.0/../../../../powerpc-eabi/lib/libstdc++.a(eh_throw.o)
                0x0000000000002e84                __cxa_rethrow
 .text.__cxa_begin_catch
                0x0000000000002f10       0xc4 /opt/devkitpro/devkitPPC/lib/gcc/powerpc-eabi/8.2.0/../../../../powerpc-eabi/lib/libstdc++.a(eh_catch.o)
                0x0000000000002f10                __cxa_begin_catch
 .text.__cxa_end_catch
                0x0000000000002fd4       0xbc /opt/devkitpro/devkitPPC/lib/gcc/powerpc-eabi/8.2.0/../../../../powerpc-eabi/lib/libstdc++.a(eh_catch.o)
                0x0000000000002fd4                __cxa_end_catch
 .text._ZNK9__gnu_cxx24__concurrence_lock_error4whatEv
                0x0000000000003090        0xc /opt/devkitpro/devkitPPC/lib/gcc/powerpc-eabi/8.2.0/../../../../powerpc-eabi/lib/libstdc++.a(eh_alloc.o)
                0x0000000000003090                _ZNK9__gnu_cxx24__concurrence_lock_error4whatEv
 .text._ZNK9__gnu_cxx26__concurrence_unlock_error4whatEv
                0x000000000000309c        0xc /opt/devkitpro/devkitPPC/lib/gcc/powerpc-eabi/8.2.0/../../../../powerpc-eabi/lib/libstdc++.a(eh_alloc.o)
                0x000000000000309c                _ZNK9__gnu_cxx26__concurrence_unlock_error4whatEv
 .text._ZN9__gnu_cxx24__concurrence_lock_errorD2Ev
                0x00000000000030a8       0x10 /opt/devkitpro/devkitPPC/lib/gcc/powerpc-eabi/8.2.0/../../../../powerpc-eabi/lib/libstdc++.a(eh_alloc.o)
                0x00000000000030a8                _ZN9__gnu_cxx24__concurrence_lock_errorD2Ev
                0x00000000000030a8                _ZN9__gnu_cxx24__concurrence_lock_errorD1Ev
 .text._ZN9__gnu_cxx26__concurrence_unlock_errorD2Ev
                0x00000000000030b8       0x10 /opt/devkitpro/devkitPPC/lib/gcc/powerpc-eabi/8.2.0/../../../../powerpc-eabi/lib/libstdc++.a(eh_alloc.o)
                0x00000000000030b8                _ZN9__gnu_cxx26__concurrence_unlock_errorD1Ev
                0x00000000000030b8                _ZN9__gnu_cxx26__concurrence_unlock_errorD2Ev
 .text._ZN9__gnu_cxx24__concurrence_lock_errorD0Ev
                0x00000000000030c8       0x40 /opt/devkitpro/devkitPPC/lib/gcc/powerpc-eabi/8.2.0/../../../../powerpc-eabi/lib/libstdc++.a(eh_alloc.o)
                0x00000000000030c8                _ZN9__gnu_cxx24__concurrence_lock_errorD0Ev
 .text._ZN9__gnu_cxx26__concurrence_unlock_errorD0Ev
                0x0000000000003108       0x40 /opt/devkitpro/devkitPPC/lib/gcc/powerpc-eabi/8.2.0/../../../../powerpc-eabi/lib/libstdc++.a(eh_alloc.o)
                0x0000000000003108                _ZN9__gnu_cxx26__concurrence_unlock_errorD0Ev
 .text._ZN9__gnu_cxx30__throw_concurrence_lock_errorEv
                0x0000000000003148       0x34 /opt/devkitpro/devkitPPC/lib/gcc/powerpc-eabi/8.2.0/../../../../powerpc-eabi/lib/libstdc++.a(eh_alloc.o)
                0x0000000000003148                _ZN9__gnu_cxx30__throw_concurrence_lock_errorEv
 .text._ZN9__gnu_cxx32__throw_concurrence_unlock_errorEv
                0x000000000000317c       0x34 /opt/devkitpro/devkitPPC/lib/gcc/powerpc-eabi/8.2.0/../../../../powerpc-eabi/lib/libstdc++.a(eh_alloc.o)
                0x000000000000317c                _ZN9__gnu_cxx32__throw_concurrence_unlock_errorEv
 .text._ZN12_GLOBAL__N_14pool4freeEPv.constprop.3
                0x00000000000031b0      0x178 /opt/devkitpro/devkitPPC/lib/gcc/powerpc-eabi/8.2.0/../../../../powerpc-eabi/lib/libstdc++.a(eh_alloc.o)
 .text._ZN12_GLOBAL__N_14pool8allocateEj.constprop.4
                0x0000000000003328      0x134 /opt/devkitpro/devkitPPC/lib/gcc/powerpc-eabi/8.2.0/../../../../powerpc-eabi/lib/libstdc++.a(eh_alloc.o)
 .text.__cxa_allocate_exception
                0x000000000000345c       0x64 /opt/devkitpro/devkitPPC/lib/gcc/powerpc-eabi/8.2.0/../../../../powerpc-eabi/lib/libstdc++.a(eh_alloc.o)
                0x000000000000345c                __cxa_allocate_exception
 .text.__cxa_free_exception
                0x00000000000034c0       0x30 /opt/devkitpro/devkitPPC/lib/gcc/powerpc-eabi/8.2.0/../../../../powerpc-eabi/lib/libstdc++.a(eh_alloc.o)
                0x00000000000034c0                __cxa_free_exception
 .text._ZdlPv   0x00000000000034f0        0x4 /opt/devkitpro/devkitPPC/lib/gcc/powerpc-eabi/8.2.0/../../../../powerpc-eabi/lib/libstdc++.a(del_op.o)
                0x00000000000034f0                _ZdlPv
 .text._ZN10__cxxabiv120__si_class_type_infoD2Ev
                0x00000000000034f4       0x10 /opt/devkitpro/devkitPPC/lib/gcc/powerpc-eabi/8.2.0/../../../../powerpc-eabi/lib/libstdc++.a(si_class_type_info.o)
                0x00000000000034f4                _ZN10__cxxabiv120__si_class_type_infoD2Ev
                0x00000000000034f4                _ZN10__cxxabiv120__si_class_type_infoD1Ev
 .text._ZN10__cxxabiv120__si_class_type_infoD0Ev
                0x0000000000003504       0x40 /opt/devkitpro/devkitPPC/lib/gcc/powerpc-eabi/8.2.0/../../../../powerpc-eabi/lib/libstdc++.a(si_class_type_info.o)
                0x0000000000003504                _ZN10__cxxabiv120__si_class_type_infoD0Ev
 .text._ZNK10__cxxabiv120__si_class_type_info20__do_find_public_srcEiPKvPKNS_17__class_type_infoES2_
                0x0000000000003544       0xa4 /opt/devkitpro/devkitPPC/lib/gcc/powerpc-eabi/8.2.0/../../../../powerpc-eabi/lib/libstdc++.a(si_class_type_info.o)
                0x0000000000003544                _ZNK10__cxxabiv120__si_class_type_info20__do_find_public_srcEiPKvPKNS_17__class_type_infoES2_
 .text._ZNK10__cxxabiv120__si_class_type_info12__do_dyncastEiNS_17__class_type_info10__sub_kindEPKS1_PKvS4_S6_RNS1_16__dyncast_resultE
                0x00000000000035e8      0x190 /opt/devkitpro/devkitPPC/lib/gcc/powerpc-eabi/8.2.0/../../../../powerpc-eabi/lib/libstdc++.a(si_class_type_info.o)
                0x00000000000035e8                _ZNK10__cxxabiv120__si_class_type_info12__do_dyncastEiNS_17__class_type_info10__sub_kindEPKS1_PKvS4_S6_RNS1_16__dyncast_resultE
 .text._ZNK10__cxxabiv120__si_class_type_info11__do_upcastEPKNS_17__class_type_infoEPKvRNS1_15__upcast_resultE
                0x0000000000003778       0x94 /opt/devkitpro/devkitPPC/lib/gcc/powerpc-eabi/8.2.0/../../../../powerpc-eabi/lib/libstdc++.a(si_class_type_info.o)
                0x0000000000003778                _ZNK10__cxxabiv120__si_class_type_info11__do_upcastEPKNS_17__class_type_infoEPKvRNS1_15__upcast_resultE
 .text.__cxa_call_terminate
                0x000000000000380c       0x58 /opt/devkitpro/devkitPPC/lib/gcc/powerpc-eabi/8.2.0/../../../../powerpc-eabi/lib/libstdc++.a(eh_call.o)
                0x000000000000380c                __cxa_call_terminate
 .text.__cxa_get_globals_fast
                0x0000000000003864       0x4c /opt/devkitpro/devkitPPC/lib/gcc/powerpc-eabi/8.2.0/../../../../powerpc-eabi/lib/libstdc++.a(eh_globals.o)
                0x0000000000003864                __cxa_get_globals_fast
 .text.__cxa_get_globals
                0x00000000000038b0       0xbc /opt/devkitpro/devkitPPC/lib/gcc/powerpc-eabi/8.2.0/../../../../powerpc-eabi/lib/libstdc++.a(eh_globals.o)
                0x00000000000038b0                __cxa_get_globals
 .text._ZN10__cxxabiv111__terminateEPFvvE
                0x000000000000396c       0x44 /opt/devkitpro/devkitPPC/lib/gcc/powerpc-eabi/8.2.0/../../../../powerpc-eabi/lib/libstdc++.a(eh_terminate.o)
                0x000000000000396c                _ZN10__cxxabiv111__terminateEPFvvE
 .text._ZSt9terminatev
                0x00000000000039b0       0x24 /opt/devkitpro/devkitPPC/lib/gcc/powerpc-eabi/8.2.0/../../../../powerpc-eabi/lib/libstdc++.a(eh_terminate.o)
                0x00000000000039b0                _ZSt9terminatev
 .text._ZN10__cxxabiv112__unexpectedEPFvvE
                0x00000000000039d4       0x18 /opt/devkitpro/devkitPPC/lib/gcc/powerpc-eabi/8.2.0/../../../../powerpc-eabi/lib/libstdc++.a(eh_terminate.o)
                0x00000000000039d4                _ZN10__cxxabiv112__unexpectedEPFvvE
 .text._ZSt10unexpectedv
                0x00000000000039ec       0x24 /opt/devkitpro/devkitPPC/lib/gcc/powerpc-eabi/8.2.0/../../../../powerpc-eabi/lib/libstdc++.a(eh_terminate.o)
                0x00000000000039ec                _ZSt10unexpectedv
 .text._ZSt13get_terminatev
                0x0000000000003a10       0x18 /opt/devkitpro/devkitPPC/lib/gcc/powerpc-eabi/8.2.0/../../../../powerpc-eabi/lib/libstdc++.a(eh_terminate.o)
                0x0000000000003a10                _ZSt13get_terminatev
 .text._ZSt14get_unexpectedv
                0x0000000000003a28       0x18 /opt/devkitpro/devkitPPC/lib/gcc/powerpc-eabi/8.2.0/../../../../powerpc-eabi/lib/libstdc++.a(eh_terminate.o)
                0x0000000000003a28                _ZSt14get_unexpectedv
 .text._ZNSt9type_infoD2Ev
                0x0000000000003a40        0x4 /opt/devkitpro/devkitPPC/lib/gcc/powerpc-eabi/8.2.0/../../../../powerpc-eabi/lib/libstdc++.a(tinfo.o)
                0x0000000000003a40                _ZNSt9type_infoD1Ev
                0x0000000000003a40                _ZNSt9type_infoD2Ev
 .text._ZNKSt9type_info14__is_pointer_pEv
                0x0000000000003a44        0x8 /opt/devkitpro/devkitPPC/lib/gcc/powerpc-eabi/8.2.0/../../../../powerpc-eabi/lib/libstdc++.a(tinfo.o)
                0x0000000000003a44                _ZNKSt9type_info15__is_function_pEv
                0x0000000000003a44                _ZNKSt9type_info14__is_pointer_pEv
 .text.__udivdi3
                0x0000000000003a4c      0x3bc /opt/devkitpro/devkitPPC/lib/gcc/powerpc-eabi/8.2.0/libgcc.a(_udivdi3.o)
                0x0000000000003a4c                __udivdi3
 .text.__gthread_active_p
                0x0000000000003e08       0x20 /opt/devkitpro/devkitPPC/lib/gcc/powerpc-eabi/8.2.0/libgcc.a(gthr-dkp.o)
                0x0000000000003e08                __gthread_active_p
 .text.__gthread_once
                0x0000000000003e28       0x20 /opt/devkitpro/devkitPPC/lib/gcc/powerpc-eabi/8.2.0/libgcc.a(gthr-dkp.o)
                0x0000000000003e28                __gthread_once
 .text.__gthread_getspecific
                0x0000000000003e48       0x48 /opt/devkitpro/devkitPPC/lib/gcc/powerpc-eabi/8.2.0/libgcc.a(gthr-dkp.o)
                0x0000000000003e48                __gthread_getspecific
 .text.__gthread_setspecific
                0x0000000000003e90       0x48 /opt/devkitpro/devkitPPC/lib/gcc/powerpc-eabi/8.2.0/libgcc.a(gthr-dkp.o)
                0x0000000000003e90                __gthread_setspecific
 .text.__gthread_mutex_init_function
                0x0000000000003ed8       0x18 /opt/devkitpro/devkitPPC/lib/gcc/powerpc-eabi/8.2.0/libgcc.a(gthr-dkp.o)
                0x0000000000003ed8                __gthread_mutex_init_function
 .text.__gthread_mutex_lock
                0x0000000000003ef0       0x20 /opt/devkitpro/devkitPPC/lib/gcc/powerpc-eabi/8.2.0/libgcc.a(gthr-dkp.o)
                0x0000000000003ef0                __gthread_mutex_lock
 .text.__gthread_mutex_unlock
                0x0000000000003f10       0x20 /opt/devkitpro/devkitPPC/lib/gcc/powerpc-eabi/8.2.0/libgcc.a(gthr-dkp.o)
                0x0000000000003f10                __gthread_mutex_unlock
 .text          0x0000000000003f30       0x58 /opt/devkitpro/devkitPPC/lib/gcc/powerpc-eabi/8.2.0/libgcc.a(crtresxfpr.o)
                0x0000000000003f30                _restfpr_14_x
                0x0000000000003f34                _restfpr_15_x
                0x0000000000003f38                _restfpr_16_x
                0x0000000000003f3c                _restfpr_17_x
                0x0000000000003f40                _restfpr_18_x
                0x0000000000003f44                _restfpr_19_x
                0x0000000000003f48                _restfpr_20_x
                0x0000000000003f4c                _restfpr_21_x
                0x0000000000003f50                _restfpr_22_x
                0x0000000000003f54                _restfpr_23_x
                0x0000000000003f58                _restfpr_24_x
                0x0000000000003f5c                _restfpr_25_x
                0x0000000000003f60                _restfpr_26_x
                0x0000000000003f64                _restfpr_27_x
                0x0000000000003f68                _restfpr_28_x
                0x0000000000003f6c                _restfpr_29_x
                0x0000000000003f70                _restfpr_30_x
                0x0000000000003f74                _restfpr_31_x
 .text          0x0000000000003f88       0x58 /opt/devkitpro/devkitPPC/lib/gcc/powerpc-eabi/8.2.0/libgcc.a(crtresxgpr.o)
                0x0000000000003f88                _restgpr_14_x
                0x0000000000003f8c                _restgpr_15_x
                0x0000000000003f90                _restgpr_16_x
                0x0000000000003f94                _restgpr_17_x
                0x0000000000003f98                _restgpr_18_x
                0x0000000000003f9c                _restgpr_19_x
                0x0000000000003fa0                _restgpr_20_x
                0x0000000000003fa4                _restgpr_21_x
                0x0000000000003fa8                _restgpr_22_x
                0x0000000000003fac                _restgpr_23_x
                0x0000000000003fb0                _restgpr_24_x
                0x0000000000003fb4                _restgpr_25_x
                0x0000000000003fb8                _restgpr_26_x
                0x0000000000003fbc                _restgpr_27_x
                0x0000000000003fc0                _restgpr_28_x
                0x0000000000003fc4                _restgpr_29_x
                0x0000000000003fc8                _restgpr_30_x
                0x0000000000003fcc                _restgpr_31_x
 .text.read_encoded_value_with_base
                0x0000000000003fe0      0x144 /opt/devkitpro/devkitPPC/lib/gcc/powerpc-eabi/8.2.0/libgcc.a(unwind-dw2.o)
 .text.base_of_encoded_value
                0x0000000000004124       0x74 /opt/devkitpro/devkitPPC/lib/gcc/powerpc-eabi/8.2.0/libgcc.a(unwind-dw2.o)
 .text.execute_cfa_program
                0x0000000000004198      0x960 /opt/devkitpro/devkitPPC/lib/gcc/powerpc-eabi/8.2.0/libgcc.a(unwind-dw2.o)
 .text.uw_frame_state_for
                0x0000000000004af8      0x4a4 /opt/devkitpro/devkitPPC/lib/gcc/powerpc-eabi/8.2.0/libgcc.a(unwind-dw2.o)
 .text.init_dwarf_reg_size_table
                0x0000000000004f9c      0x1d4 /opt/devkitpro/devkitPPC/lib/gcc/powerpc-eabi/8.2.0/libgcc.a(unwind-dw2.o)
 .text.execute_stack_op
                0x0000000000005170      0x7d4 /opt/devkitpro/devkitPPC/lib/gcc/powerpc-eabi/8.2.0/libgcc.a(unwind-dw2.o)
 .text.uw_update_context_1
                0x0000000000005944      0x3f0 /opt/devkitpro/devkitPPC/lib/gcc/powerpc-eabi/8.2.0/libgcc.a(unwind-dw2.o)
 .text.uw_init_context_1
                0x0000000000005d34      0x2d8 /opt/devkitpro/devkitPPC/lib/gcc/powerpc-eabi/8.2.0/libgcc.a(unwind-dw2.o)
 .text.uw_update_context
                0x000000000000600c       0xbc /opt/devkitpro/devkitPPC/lib/gcc/powerpc-eabi/8.2.0/libgcc.a(unwind-dw2.o)
 .text._Unwind_RaiseException_Phase2
                0x00000000000060c8      0x114 /opt/devkitpro/devkitPPC/lib/gcc/powerpc-eabi/8.2.0/libgcc.a(unwind-dw2.o)
 .text._Unwind_ForcedUnwind_Phase2
                0x00000000000061dc      0x164 /opt/devkitpro/devkitPPC/lib/gcc/powerpc-eabi/8.2.0/libgcc.a(unwind-dw2.o)
 .text.uw_install_context_1
                0x0000000000006340      0x1ec /opt/devkitpro/devkitPPC/lib/gcc/powerpc-eabi/8.2.0/libgcc.a(unwind-dw2.o)
 .text._Unwind_SetGR
                0x000000000000652c       0x64 /opt/devkitpro/devkitPPC/lib/gcc/powerpc-eabi/8.2.0/libgcc.a(unwind-dw2.o)
                0x000000000000652c                _Unwind_SetGR
 .text._Unwind_GetIPInfo
                0x0000000000006590       0x14 /opt/devkitpro/devkitPPC/lib/gcc/powerpc-eabi/8.2.0/libgcc.a(unwind-dw2.o)
                0x0000000000006590                _Unwind_GetIPInfo
 .text._Unwind_SetIP
                0x00000000000065a4        0x8 /opt/devkitpro/devkitPPC/lib/gcc/powerpc-eabi/8.2.0/libgcc.a(unwind-dw2.o)
                0x00000000000065a4                _Unwind_SetIP
 .text._Unwind_GetLanguageSpecificData
                0x00000000000065ac        0x8 /opt/devkitpro/devkitPPC/lib/gcc/powerpc-eabi/8.2.0/libgcc.a(unwind-dw2.o)
                0x00000000000065ac                _Unwind_GetLanguageSpecificData
 .text._Unwind_GetRegionStart
                0x00000000000065b4        0x8 /opt/devkitpro/devkitPPC/lib/gcc/powerpc-eabi/8.2.0/libgcc.a(unwind-dw2.o)
                0x00000000000065b4                _Unwind_GetRegionStart
 .text._Unwind_GetDataRelBase
                0x00000000000065bc        0x8 /opt/devkitpro/devkitPPC/lib/gcc/powerpc-eabi/8.2.0/libgcc.a(unwind-dw2.o)
                0x00000000000065bc                _Unwind_GetDataRelBase
 .text._Unwind_GetTextRelBase
                0x00000000000065c4        0x8 /opt/devkitpro/devkitPPC/lib/gcc/powerpc-eabi/8.2.0/libgcc.a(unwind-dw2.o)
                0x00000000000065c4                _Unwind_GetTextRelBase
 .text._Unwind_DebugHook
                0x00000000000065cc        0x4 /opt/devkitpro/devkitPPC/lib/gcc/powerpc-eabi/8.2.0/libgcc.a(unwind-dw2.o)
 .text._Unwind_RaiseException
                0x00000000000065d0      0x270 /opt/devkitpro/devkitPPC/lib/gcc/powerpc-eabi/8.2.0/libgcc.a(unwind-dw2.o)
                0x00000000000065d0                _Unwind_RaiseException
 .text._Unwind_Resume
                0x0000000000006840      0x1dc /opt/devkitpro/devkitPPC/lib/gcc/powerpc-eabi/8.2.0/libgcc.a(unwind-dw2.o)
                0x0000000000006840                _Unwind_Resume
 .text._Unwind_Resume_or_Rethrow
                0x0000000000006a1c      0x1e0 /opt/devkitpro/devkitPPC/lib/gcc/powerpc-eabi/8.2.0/libgcc.a(unwind-dw2.o)
                0x0000000000006a1c                _Unwind_Resume_or_Rethrow
 .text._Unwind_DeleteException
                0x0000000000006bfc       0x1c /opt/devkitpro/devkitPPC/lib/gcc/powerpc-eabi/8.2.0/libgcc.a(unwind-dw2.o)
                0x0000000000006bfc                _Unwind_DeleteException
 .text.fde_unencoded_compare
                0x0000000000006c18       0x20 /opt/devkitpro/devkitPPC/lib/gcc/powerpc-eabi/8.2.0/libgcc.a(unwind-dw2-fde.o)
 .text.frame_downheap
                0x0000000000006c38      0x15c /opt/devkitpro/devkitPPC/lib/gcc/powerpc-eabi/8.2.0/libgcc.a(unwind-dw2-fde.o)
 .text.frame_heapsort
                0x0000000000006d94       0xd8 /opt/devkitpro/devkitPPC/lib/gcc/powerpc-eabi/8.2.0/libgcc.a(unwind-dw2-fde.o)
 .text.init_object_mutex
                0x0000000000006e6c        0xc /opt/devkitpro/devkitPPC/lib/gcc/powerpc-eabi/8.2.0/libgcc.a(unwind-dw2-fde.o)
 .text.size_of_encoded_value
                0x0000000000006e78       0x64 /opt/devkitpro/devkitPPC/lib/gcc/powerpc-eabi/8.2.0/libgcc.a(unwind-dw2-fde.o)
 .text.read_encoded_value_with_base
                0x0000000000006edc      0x144 /opt/devkitpro/devkitPPC/lib/gcc/powerpc-eabi/8.2.0/libgcc.a(unwind-dw2-fde.o)
 .text.get_cie_encoding
                0x0000000000007020      0x160 /opt/devkitpro/devkitPPC/lib/gcc/powerpc-eabi/8.2.0/libgcc.a(unwind-dw2-fde.o)
 .text.base_from_object.isra.5
                0x0000000000007180       0x6c /opt/devkitpro/devkitPPC/lib/gcc/powerpc-eabi/8.2.0/libgcc.a(unwind-dw2-fde.o)
 .text.fde_single_encoding_compare
                0x00000000000071ec       0xb4 /opt/devkitpro/devkitPPC/lib/gcc/powerpc-eabi/8.2.0/libgcc.a(unwind-dw2-fde.o)
 .text.classify_object_over_fdes
                0x00000000000072a0      0x1b0 /opt/devkitpro/devkitPPC/lib/gcc/powerpc-eabi/8.2.0/libgcc.a(unwind-dw2-fde.o)
 .text.add_fdes
                0x0000000000007450      0x1a4 /opt/devkitpro/devkitPPC/lib/gcc/powerpc-eabi/8.2.0/libgcc.a(unwind-dw2-fde.o)
 .text.linear_search_fdes
                0x00000000000075f4      0x1e8 /opt/devkitpro/devkitPPC/lib/gcc/powerpc-eabi/8.2.0/libgcc.a(unwind-dw2-fde.o)
 .text.fde_mixed_encoding_compare
                0x00000000000077dc       0xe4 /opt/devkitpro/devkitPPC/lib/gcc/powerpc-eabi/8.2.0/libgcc.a(unwind-dw2-fde.o)
 .text.search_object
                0x00000000000078c0      0x7ec /opt/devkitpro/devkitPPC/lib/gcc/powerpc-eabi/8.2.0/libgcc.a(unwind-dw2-fde.o)
 .text._Unwind_Find_FDE
                0x00000000000080ac      0x230 /opt/devkitpro/devkitPPC/lib/gcc/powerpc-eabi/8.2.0/libgcc.a(unwind-dw2-fde.o)
                0x00000000000080ac                _Unwind_Find_FDE
 .text.unlikely.abort
                0x00000000000082dc       0x28 /opt/devkitpro/devkitPPC/lib/gcc/powerpc-eabi/8.2.0/../../../../powerpc-eabi/lib/libsysbase.a(abort.o)
                0x00000000000082dc                abort
 .text._exit    0x0000000000008304       0x2c /opt/devkitpro/devkitPPC/lib/gcc/powerpc-eabi/8.2.0/../../../../powerpc-eabi/lib/libsysbase.a(_exit.o)
                0x0000000000008304                _exit
 .text.mkdir    0x0000000000008330       0xa4 /opt/devkitpro/devkitPPC/lib/gcc/powerpc-eabi/8.2.0/../../../../powerpc-eabi/lib/libsysbase.a(mkdir.o)
                0x0000000000008330                mkdir
 .text.__libc_lock_init
                0x00000000000083d4       0x20 /opt/devkitpro/devkitPPC/lib/gcc/powerpc-eabi/8.2.0/../../../../powerpc-eabi/lib/libsysbase.a(syscall_support.o)
                0x00000000000083d4                __libc_lock_init
 .text.__libc_lock_release
                0x00000000000083f4       0x20 /opt/devkitpro/devkitPPC/lib/gcc/powerpc-eabi/8.2.0/../../../../powerpc-eabi/lib/libsysbase.a(syscall_support.o)
                0x00000000000083f4                __libc_lock_release
 .text.__libc_lock_acquire
                0x0000000000008414       0x20 /opt/devkitpro/devkitPPC/lib/gcc/powerpc-eabi/8.2.0/../../../../powerpc-eabi/lib/libsysbase.a(syscall_support.o)
                0x0000000000008414                __libc_lock_acquire
 .text.opendir  0x0000000000008434      0x16c /opt/devkitpro/devkitPPC/lib/gcc/powerpc-eabi/8.2.0/../../../../powerpc-eabi/lib/libsysbase.a(dirent.o)
                0x0000000000008434                opendir
 .text.closedir
                0x00000000000085a0       0xcc /opt/devkitpro/devkitPPC/lib/gcc/powerpc-eabi/8.2.0/../../../../powerpc-eabi/lib/libsysbase.a(dirent.o)
                0x00000000000085a0                closedir
 .text.readdir  0x000000000000866c      0x158 /opt/devkitpro/devkitPPC/lib/gcc/powerpc-eabi/8.2.0/../../../../powerpc-eabi/lib/libsysbase.a(dirent.o)
                0x000000000000866c                readdir
 .text.null_write
                0x00000000000087c4        0x8 /opt/devkitpro/devkitPPC/lib/gcc/powerpc-eabi/8.2.0/../../../../powerpc-eabi/lib/libsysbase.a(iosupport.o)
 .text.FindDevice
                0x00000000000087cc      0x130 /opt/devkitpro/devkitPPC/lib/gcc/powerpc-eabi/8.2.0/../../../../powerpc-eabi/lib/libsysbase.a(iosupport.o)
                0x00000000000087cc                FindDevice
 .text.__errno  0x00000000000088fc        0xc /opt/devkitpro/devkitPPC/lib/gcc/powerpc-eabi/8.2.0/../../../../powerpc-eabi/lib/libc.a(lib_a-errno.o)
                0x00000000000088fc                __errno
 .text.__locale_mb_cur_max
                0x0000000000008908       0x2c /opt/devkitpro/devkitPPC/lib/gcc/powerpc-eabi/8.2.0/../../../../powerpc-eabi/lib/libc.a(lib_a-locale.o)
                0x0000000000008908                __locale_mb_cur_max
 .text.__locale_ctype_ptr
                0x0000000000008934       0x2c /opt/devkitpro/devkitPPC/lib/gcc/powerpc-eabi/8.2.0/../../../../powerpc-eabi/lib/libc.a(lib_a-locale.o)
                0x0000000000008934                __locale_ctype_ptr
 .text.memalign
                0x0000000000008960       0x14 /opt/devkitpro/devkitPPC/lib/gcc/powerpc-eabi/8.2.0/../../../../powerpc-eabi/lib/libc.a(lib_a-malign.o)
                0x0000000000008960                memalign
 .text.malloc   0x0000000000008974       0x10 /opt/devkitpro/devkitPPC/lib/gcc/powerpc-eabi/8.2.0/../../../../powerpc-eabi/lib/libc.a(lib_a-malloc.o)
                0x0000000000008974                malloc
 .text.free     0x0000000000008984       0x10 /opt/devkitpro/devkitPPC/lib/gcc/powerpc-eabi/8.2.0/../../../../powerpc-eabi/lib/libc.a(lib_a-malloc.o)
                0x0000000000008984                free
 .text.__utf8_mbtowc
                0x0000000000008994      0x5dc /opt/devkitpro/devkitPPC/lib/gcc/powerpc-eabi/8.2.0/../../../../powerpc-eabi/lib/libc.a(lib_a-mbtowc_r.o)
                0x0000000000008994                __utf8_mbtowc
 .text.memcpy   0x0000000000008f70      0x100 /opt/devkitpro/devkitPPC/lib/gcc/powerpc-eabi/8.2.0/../../../../powerpc-eabi/lib/libc.a(lib_a-memcpy.o)
                0x0000000000008f70                memcpy
 .text.memset   0x0000000000009070      0x104 /opt/devkitpro/devkitPPC/lib/gcc/powerpc-eabi/8.2.0/../../../../powerpc-eabi/lib/libc.a(lib_a-memset.o)
                0x0000000000009070                memset
 .text.strchr   0x0000000000009174      0x160 /opt/devkitpro/devkitPPC/lib/gcc/powerpc-eabi/8.2.0/../../../../powerpc-eabi/lib/libc.a(lib_a-strchr.o)
                0x0000000000009174                strchr
 .text.strcmp   0x00000000000092d4       0xa8 /opt/devkitpro/devkitPPC/lib/gcc/powerpc-eabi/8.2.0/../../../../powerpc-eabi/lib/libc.a(lib_a-strcmp.o)
                0x00000000000092d4                strcmp
 .text.strcpy   0x000000000000937c       0x84 /opt/devkitpro/devkitPPC/lib/gcc/powerpc-eabi/8.2.0/../../../../powerpc-eabi/lib/libc.a(lib_a-strcpy.o)
                0x000000000000937c                strcpy
 .text.strlen   0x0000000000009400       0x8c /opt/devkitpro/devkitPPC/lib/gcc/powerpc-eabi/8.2.0/../../../../powerpc-eabi/lib/libc.a(lib_a-strlen.o)
                0x0000000000009400                strlen
 .text.strncmp  0x000000000000948c      0x10c /opt/devkitpro/devkitPPC/lib/gcc/powerpc-eabi/8.2.0/../../../../powerpc-eabi/lib/libc.a(lib_a-strncmp.o)
                0x000000000000948c                strncmp
 .text.strncpy  0x0000000000009598       0xf0 /opt/devkitpro/devkitPPC/lib/gcc/powerpc-eabi/8.2.0/../../../../powerpc-eabi/lib/libc.a(lib_a-strncpy.o)
                0x0000000000009598                strncpy
 .text.strnlen  0x0000000000009688       0x50 /opt/devkitpro/devkitPPC/lib/gcc/powerpc-eabi/8.2.0/../../../../powerpc-eabi/lib/libc.a(lib_a-strnlen.o)
                0x0000000000009688                strnlen
 .text.close    0x00000000000096d8       0x10 /opt/devkitpro/devkitPPC/lib/gcc/powerpc-eabi/8.2.0/../../../../powerpc-eabi/lib/libc.a(lib_a-sysclose.o)
                0x00000000000096d8                close
 .text.fstat    0x00000000000096e8       0x14 /opt/devkitpro/devkitPPC/lib/gcc/powerpc-eabi/8.2.0/../../../../powerpc-eabi/lib/libc.a(lib_a-sysfstat.o)
                0x00000000000096e8                fstat
 .text.lseek    0x00000000000096fc       0x10 /opt/devkitpro/devkitPPC/lib/gcc/powerpc-eabi/8.2.0/../../../../powerpc-eabi/lib/libc.a(lib_a-syslseek.o)
                0x00000000000096fc                lseek
 .text.open     0x000000000000970c       0x50 /opt/devkitpro/devkitPPC/lib/gcc/powerpc-eabi/8.2.0/../../../../powerpc-eabi/lib/libc.a(lib_a-sysopen.o)
                0x000000000000970c                open
 .text.read     0x000000000000975c       0x18 /opt/devkitpro/devkitPPC/lib/gcc/powerpc-eabi/8.2.0/../../../../powerpc-eabi/lib/libc.a(lib_a-sysread.o)
                0x000000000000975c                read
 .text.stat     0x0000000000009774       0x14 /opt/devkitpro/devkitPPC/lib/gcc/powerpc-eabi/8.2.0/../../../../powerpc-eabi/lib/libc.a(lib_a-sysstat.o)
                0x0000000000009774                stat
 .text.write    0x0000000000009788       0x18 /opt/devkitpro/devkitPPC/lib/gcc/powerpc-eabi/8.2.0/../../../../powerpc-eabi/lib/libc.a(lib_a-syswrite.o)
                0x0000000000009788                write
 .text._vsprintf_r
                0x00000000000097a0       0x58 /opt/devkitpro/devkitPPC/lib/gcc/powerpc-eabi/8.2.0/../../../../powerpc-eabi/lib/libc.a(lib_a-vsprintf.o)
                0x00000000000097a0                _vsprintf_r
 .text.vsprintf
                0x00000000000097f8       0x18 /opt/devkitpro/devkitPPC/lib/gcc/powerpc-eabi/8.2.0/../../../../powerpc-eabi/lib/libc.a(lib_a-vsprintf.o)
                0x00000000000097f8                vsprintf
 .text.__utf8_wctomb
                0x0000000000009810      0x118 /opt/devkitpro/devkitPPC/lib/gcc/powerpc-eabi/8.2.0/../../../../powerpc-eabi/lib/libc.a(lib_a-wctomb_r.o)
                0x0000000000009810                __utf8_wctomb
 .text._svfprintf_r
                0x0000000000009928     0x22e8 /opt/devkitpro/devkitPPC/lib/gcc/powerpc-eabi/8.2.0/../../../../powerpc-eabi/lib/libc.a(lib_a-svfprintf.o)
                0x0000000000009928                _svfprintf_r
 .text._wcrtomb_r
                0x000000000000bc10       0xe4 /opt/devkitpro/devkitPPC/lib/gcc/powerpc-eabi/8.2.0/../../../../powerpc-eabi/lib/libc.a(lib_a-wcrtomb.o)
                0x000000000000bc10                _wcrtomb_r
 .text._wcsrtombs_r
                0x000000000000bcf4       0x10 /opt/devkitpro/devkitPPC/lib/gcc/powerpc-eabi/8.2.0/../../../../powerpc-eabi/lib/libc.a(lib_a-wcsrtombs.o)
                0x000000000000bcf4                _wcsrtombs_r
 .text.quorem   0x000000000000bd04      0x240 /opt/devkitpro/devkitPPC/lib/gcc/powerpc-eabi/8.2.0/../../../../powerpc-eabi/lib/libc.a(lib_a-dtoa.o)
 .text._dtoa_r  0x000000000000bf44     0x1338 /opt/devkitpro/devkitPPC/lib/gcc/powerpc-eabi/8.2.0/../../../../powerpc-eabi/lib/libc.a(lib_a-dtoa.o)
                0x000000000000bf44                _dtoa_r
 .text._localeconv_r
                0x000000000000d27c       0x2c /opt/devkitpro/devkitPPC/lib/gcc/powerpc-eabi/8.2.0/../../../../powerpc-eabi/lib/libc.a(lib_a-localeconv.o)
                0x000000000000d27c                _localeconv_r
 .text.memchr   0x000000000000d2a8       0xec /opt/devkitpro/devkitPPC/lib/gcc/powerpc-eabi/8.2.0/../../../../powerpc-eabi/lib/libc.a(lib_a-memchr.o)
                0x000000000000d2a8                memchr
 .text._Balloc  0x000000000000d394       0xe0 /opt/devkitpro/devkitPPC/lib/gcc/powerpc-eabi/8.2.0/../../../../powerpc-eabi/lib/libc.a(lib_a-mprec.o)
                0x000000000000d394                _Balloc
 .text._Bfree   0x000000000000d474       0x24 /opt/devkitpro/devkitPPC/lib/gcc/powerpc-eabi/8.2.0/../../../../powerpc-eabi/lib/libc.a(lib_a-mprec.o)
                0x000000000000d474                _Bfree
 .text.__multadd
                0x000000000000d498      0x138 /opt/devkitpro/devkitPPC/lib/gcc/powerpc-eabi/8.2.0/../../../../powerpc-eabi/lib/libc.a(lib_a-mprec.o)
                0x000000000000d498                __multadd
 .text.__hi0bits
                0x000000000000d5d0       0x6c /opt/devkitpro/devkitPPC/lib/gcc/powerpc-eabi/8.2.0/../../../../powerpc-eabi/lib/libc.a(lib_a-mprec.o)
                0x000000000000d5d0                __hi0bits
 .text.__lo0bits
                0x000000000000d63c       0xbc /opt/devkitpro/devkitPPC/lib/gcc/powerpc-eabi/8.2.0/../../../../powerpc-eabi/lib/libc.a(lib_a-mprec.o)
                0x000000000000d63c                __lo0bits
 .text.__i2b    0x000000000000d6f8       0x3c /opt/devkitpro/devkitPPC/lib/gcc/powerpc-eabi/8.2.0/../../../../powerpc-eabi/lib/libc.a(lib_a-mprec.o)
                0x000000000000d6f8                __i2b
 .text.__multiply
                0x000000000000d734      0x248 /opt/devkitpro/devkitPPC/lib/gcc/powerpc-eabi/8.2.0/../../../../powerpc-eabi/lib/libc.a(lib_a-mprec.o)
                0x000000000000d734                __multiply
 .text.__pow5mult
                0x000000000000d97c      0x16c /opt/devkitpro/devkitPPC/lib/gcc/powerpc-eabi/8.2.0/../../../../powerpc-eabi/lib/libc.a(lib_a-mprec.o)
                0x000000000000d97c                __pow5mult
 .text.__lshift
                0x000000000000dae8      0x15c /opt/devkitpro/devkitPPC/lib/gcc/powerpc-eabi/8.2.0/../../../../powerpc-eabi/lib/libc.a(lib_a-mprec.o)
                0x000000000000dae8                __lshift
 .text.__mcmp   0x000000000000dc44       0x58 /opt/devkitpro/devkitPPC/lib/gcc/powerpc-eabi/8.2.0/../../../../powerpc-eabi/lib/libc.a(lib_a-mprec.o)
                0x000000000000dc44                __mcmp
 .text.__mdiff  0x000000000000dc9c      0x1f0 /opt/devkitpro/devkitPPC/lib/gcc/powerpc-eabi/8.2.0/../../../../powerpc-eabi/lib/libc.a(lib_a-mprec.o)
                0x000000000000dc9c                __mdiff
 .text.__d2b    0x000000000000de8c      0x18c /opt/devkitpro/devkitPPC/lib/gcc/powerpc-eabi/8.2.0/../../../../powerpc-eabi/lib/libc.a(lib_a-mprec.o)
                0x000000000000de8c                __d2b
 .text.__ssprint_r
                0x000000000000e018      0x24c /opt/devkitpro/devkitPPC/lib/gcc/powerpc-eabi/8.2.0/../../../../powerpc-eabi/lib/libc.a(lib_a-svfiprintf.o)
                0x000000000000e018                __ssprint_r
 .text._wcsnrtombs_l
                0x000000000000e264      0x1e4 /opt/devkitpro/devkitPPC/lib/gcc/powerpc-eabi/8.2.0/../../../../powerpc-eabi/lib/libc.a(lib_a-wcsnrtombs.o)
                0x000000000000e264                _wcsnrtombs_l
 .text._wcsnrtombs_r
                0x000000000000e448       0x24 /opt/devkitpro/devkitPPC/lib/gcc/powerpc-eabi/8.2.0/../../../../powerpc-eabi/lib/libc.a(lib_a-wcsnrtombs.o)
                0x000000000000e448                _wcsnrtombs_r
 .text.memmove  0x000000000000e46c      0x138 /opt/devkitpro/devkitPPC/lib/gcc/powerpc-eabi/8.2.0/../../../../powerpc-eabi/lib/libc.a(lib_a-memmove.o)
                0x000000000000e46c                memmove
 .text._close_r
                0x000000000000e5a4       0xec /opt/devkitpro/devkitPPC/lib/gcc/powerpc-eabi/8.2.0/../../../../powerpc-eabi/lib/libsysbase.a(close.o)
                0x000000000000e5a4                _close_r
 .text._fstat_r
                0x000000000000e690       0xb0 /opt/devkitpro/devkitPPC/lib/gcc/powerpc-eabi/8.2.0/../../../../powerpc-eabi/lib/libsysbase.a(fstat.o)
                0x000000000000e690                _fstat_r
 .text._lseek_r
                0x000000000000e740       0xe0 /opt/devkitpro/devkitPPC/lib/gcc/powerpc-eabi/8.2.0/../../../../powerpc-eabi/lib/libsysbase.a(lseek.o)
                0x000000000000e740                _lseek_r
 .text._open_r  0x000000000000e820      0x120 /opt/devkitpro/devkitPPC/lib/gcc/powerpc-eabi/8.2.0/../../../../powerpc-eabi/lib/libsysbase.a(open.o)
                0x000000000000e820                _open_r
 .text._read_r  0x000000000000e940       0xc4 /opt/devkitpro/devkitPPC/lib/gcc/powerpc-eabi/8.2.0/../../../../powerpc-eabi/lib/libsysbase.a(read.o)
                0x000000000000e940                _read_r
 .text._stat_r  0x000000000000ea04       0xb4 /opt/devkitpro/devkitPPC/lib/gcc/powerpc-eabi/8.2.0/../../../../powerpc-eabi/lib/libsysbase.a(stat.o)
                0x000000000000ea04                _stat_r
 .text._write_r
                0x000000000000eab8       0xc4 /opt/devkitpro/devkitPPC/lib/gcc/powerpc-eabi/8.2.0/../../../../powerpc-eabi/lib/libsysbase.a(write.o)
                0x000000000000eab8                _write_r
 .text.__release_handle
                0x000000000000eb7c       0xe4 /opt/devkitpro/devkitPPC/lib/gcc/powerpc-eabi/8.2.0/../../../../powerpc-eabi/lib/libsysbase.a(handle_manager.o)
                0x000000000000eb7c                __release_handle
 .text.__alloc_handle
                0x000000000000ec60      0x110 /opt/devkitpro/devkitPPC/lib/gcc/powerpc-eabi/8.2.0/../../../../powerpc-eabi/lib/libsysbase.a(handle_manager.o)
                0x000000000000ec60                __alloc_handle
 .text.__get_handle
                0x000000000000ed70       0x24 /opt/devkitpro/devkitPPC/lib/gcc/powerpc-eabi/8.2.0/../../../../powerpc-eabi/lib/libsysbase.a(handle_manager.o)
                0x000000000000ed70                __get_handle
 .text.__umoddi3
                0x000000000000ed94      0x370 /opt/devkitpro/devkitPPC/lib/gcc/powerpc-eabi/8.2.0/libgcc.a(_umoddi3.o)
                0x000000000000ed94                __umoddi3

.glink          0x000000000000f104        0x0
 .glink         0x000000000000f104        0x0 main.o

.sdata          0x000000000000f104       0x40
 *(.sdata*)
 .sdata         0x000000000000f104        0x0 main.o
                0x0000000000017104                _SDA_BASE_
 .sdata2        0x000000000000f104        0x0 main.o
                0x0000000000017104                _SDA2_BASE_
 .sdata._ZTS6Shader
                0x000000000000f104        0x8 Texture2DShader.o
                0x000000000000f104                _ZTS6Shader
 .sdata._ZTI6Shader
                0x000000000000f10c        0x8 Texture2DShader.o
                0x000000000000f10c                _ZTI6Shader
 .sdata._ZTISt9exception
                0x000000000000f114        0x8 /opt/devkitpro/devkitPPC/lib/gcc/powerpc-eabi/8.2.0/../../../../powerpc-eabi/lib/libstdc++.a(eh_exception.o)
                0x000000000000f114                _ZTISt9exception
 .sdata._ZTIN10__cxxabiv115__forced_unwindE
                0x000000000000f11c        0x8 /opt/devkitpro/devkitPPC/lib/gcc/powerpc-eabi/8.2.0/../../../../powerpc-eabi/lib/libstdc++.a(eh_exception.o)
                0x000000000000f11c                _ZTIN10__cxxabiv115__forced_unwindE
 .sdata._ZTIN10__cxxabiv119__foreign_exceptionE
                0x000000000000f124        0x8 /opt/devkitpro/devkitPPC/lib/gcc/powerpc-eabi/8.2.0/../../../../powerpc-eabi/lib/libstdc++.a(eh_exception.o)
                0x000000000000f124                _ZTIN10__cxxabiv119__foreign_exceptionE
 .sdata._ZTISt9type_info
                0x000000000000f12c        0x8 /opt/devkitpro/devkitPPC/lib/gcc/powerpc-eabi/8.2.0/../../../../powerpc-eabi/lib/libstdc++.a(tinfo.o)
                0x000000000000f12c                _ZTISt9type_info
 .sdata._ZN10__cxxabiv119__terminate_handlerE
                0x000000000000f134        0x4 /opt/devkitpro/devkitPPC/lib/gcc/powerpc-eabi/8.2.0/../../../../powerpc-eabi/lib/libstdc++.a(eh_term_handler.o)
                0x000000000000f134                _ZN10__cxxabiv119__terminate_handlerE
 .sdata._ZN10__cxxabiv120__unexpected_handlerE
                0x000000000000f138        0x4 /opt/devkitpro/devkitPPC/lib/gcc/powerpc-eabi/8.2.0/../../../../powerpc-eabi/lib/libstdc++.a(eh_unex_handler.o)
                0x000000000000f138                _ZN10__cxxabiv120__unexpected_handlerE
 .sdata         0x000000000000f13c        0x8 /opt/devkitpro/devkitPPC/lib/gcc/powerpc-eabi/8.2.0/../../../../powerpc-eabi/lib/libc.a(lib_a-impure.o)
                0x000000000000f13c                _global_impure_ptr
                0x000000000000f140                _impure_ptr

.data           0x000000000000f148     0x1668
 *(.data*)
 .data          0x000000000000f148        0x4 main.o
                0x000000000000f148                real_GX2CopyColorBufferToScanBuffer
 .data          0x000000000000f14c       0x2c /opt/devkitpro/wups/lib/libwups.a(fs_function_wrapper.o)
 .data          0x000000000000f178       0x18 /opt/wut/lib/libutilswut.a(logger.c.obj)
 .data.defaultDevice
                0x000000000000f190        0x4 /opt/devkitpro/devkitPPC/lib/gcc/powerpc-eabi/8.2.0/../../../../powerpc-eabi/lib/libsysbase.a(iosupport.o)
 .data.devoptab_list
                0x000000000000f194       0x40 /opt/devkitpro/devkitPPC/lib/gcc/powerpc-eabi/8.2.0/../../../../powerpc-eabi/lib/libsysbase.a(iosupport.o)
                0x000000000000f194                devoptab_list
 *fill*         0x000000000000f1d4        0x4 
 .data.impure_data
                0x000000000000f1d8      0x448 /opt/devkitpro/devkitPPC/lib/gcc/powerpc-eabi/8.2.0/../../../../powerpc-eabi/lib/libc.a(lib_a-impure.o)
 .data.__global_locale
                0x000000000000f620      0x16c /opt/devkitpro/devkitPPC/lib/gcc/powerpc-eabi/8.2.0/../../../../powerpc-eabi/lib/libc.a(lib_a-locale.o)
                0x000000000000f620                __global_locale
 .data.__stderr_handle
                0x000000000000f78c        0xc /opt/devkitpro/devkitPPC/lib/gcc/powerpc-eabi/8.2.0/../../../../powerpc-eabi/lib/libsysbase.a(handle_manager.o)
 .data.__stdin_handle
                0x000000000000f798        0xc /opt/devkitpro/devkitPPC/lib/gcc/powerpc-eabi/8.2.0/../../../../powerpc-eabi/lib/libsysbase.a(handle_manager.o)
 .data.__stdout_handle
                0x000000000000f7a4        0xc /opt/devkitpro/devkitPPC/lib/gcc/powerpc-eabi/8.2.0/../../../../powerpc-eabi/lib/libsysbase.a(handle_manager.o)
 .data.handles  0x000000000000f7b0     0x1000 /opt/devkitpro/devkitPPC/lib/gcc/powerpc-eabi/8.2.0/../../../../powerpc-eabi/lib/libsysbase.a(handle_manager.o)

.branch_lt      0x00000000000107b0        0x0
 .branch_lt     0x00000000000107b0        0x0 main.o

.rodata         0x00000000000107b0     0x1a8c
 *(.rodata*)
 .rodata._Z11init_pluginv.str1.1
                0x00000000000107b0       0x63 main.o
 .rodata._Z13deinit_pluginv.str1.1
                0x0000000000010813       0x3a main.o
 .rodata._Z13on_app_endingv.str1.1
                0x000000000001084d       0x3c main.o
 .rodata._Z15on_app_starting30wups_loader_app_started_args_t.str1.1
                0x0000000000010889       0x3b main.o
 .rodata._Z33my_GX2CopyColorBufferToScanBufferP14GX2ColorBuffer13GX2ScanTarget.cst4
                0x00000000000108c4        0x8 main.o
 .rodata._Z33my_GX2CopyColorBufferToScanBufferP14GX2ColorBuffer13GX2ScanTarget.str1.1
                0x00000000000108cc       0x9e main.o
 *fill*         0x000000000001096a        0x2 
 .rodata._ZZ11init_pluginvE12__FUNCTION__
                0x000000000001096c        0xc main.o
 .rodata._ZZ13deinit_pluginvE12__FUNCTION__
                0x0000000000010978        0xe main.o
 *fill*         0x0000000000010986        0x2 
 .rodata._ZZ13on_app_endingvE12__FUNCTION__
                0x0000000000010988        0xe main.o
 *fill*         0x0000000000010996        0x2 
 .rodata._ZZ15on_app_starting30wups_loader_app_started_args_tE12__FUNCTION__
                0x0000000000010998       0x10 main.o
 .rodata._ZZ33my_GX2CopyColorBufferToScanBufferP14GX2ColorBuffer13GX2ScanTargetE12__FUNCTION__
                0x00000000000109a8       0x22 main.o
 .rodata.str1.1
                0x00000000000109ca       0x22 main.o
                                         0x41 (size before relaxing)
 .rodata._ZTS12VertexShader
                0x00000000000109ec        0xf Texture2DShader.o
                0x00000000000109ec                _ZTS12VertexShader
 *fill*         0x00000000000109fb        0x1 
 .rodata._ZTI12VertexShader
                0x00000000000109fc        0xc Texture2DShader.o
                0x00000000000109fc                _ZTI12VertexShader
 .rodata._ZTS11PixelShader
                0x0000000000010a08        0xe Texture2DShader.o
                0x0000000000010a08                _ZTS11PixelShader
 *fill*         0x0000000000010a16        0x2 
 .rodata._ZTI11PixelShader
                0x0000000000010a18        0xc Texture2DShader.o
                0x0000000000010a18                _ZTI11PixelShader
 .rodata._ZTS11FetchShader
                0x0000000000010a24        0xe Texture2DShader.o
                0x0000000000010a24                _ZTS11FetchShader
 *fill*         0x0000000000010a32        0x2 
 .rodata._ZTI11FetchShader
                0x0000000000010a34        0xc Texture2DShader.o
                0x0000000000010a34                _ZTI11FetchShader
 .rodata._ZTS15Texture2DShader
                0x0000000000010a40       0x12 Texture2DShader.o
                0x0000000000010a40                _ZTS15Texture2DShader
 *fill*         0x0000000000010a52        0x2 
 .rodata._ZTI15Texture2DShader
                0x0000000000010a54        0xc Texture2DShader.o
                0x0000000000010a54                _ZTI15Texture2DShader
 .rodata._ZTV12VertexShader
                0x0000000000010a60       0x10 Texture2DShader.o
                0x0000000000010a60                _ZTV12VertexShader
 .rodata._ZTV11PixelShader
                0x0000000000010a70       0x10 Texture2DShader.o
                0x0000000000010a70                _ZTV11PixelShader
 .rodata._ZTV11FetchShader
                0x0000000000010a80       0x10 Texture2DShader.o
                0x0000000000010a80                _ZTV11FetchShader
 .rodata._ZTV15Texture2DShader
                0x0000000000010a90       0x10 Texture2DShader.o
                0x0000000000010a90                _ZTV15Texture2DShader
 .rodata._ZL16cPixelShaderRegs
                0x0000000000010aa0       0xa4 Texture2DShader.o
 .rodata._ZL18cpVertexShaderRegs
                0x0000000000010b44       0xd0 Texture2DShader.o
 .rodata._ZL19cPixelShaderProgram
                0x0000000000010c14      0x690 Texture2DShader.o
 .rodata._ZL21cpVertexShaderProgram
                0x00000000000112a4      0x218 Texture2DShader.o
 .rodata._ZN15Texture2DShaderC2Ev.cst4
                0x00000000000114bc        0x4 Texture2DShader.o
                                          0xc (size before relaxing)
 .rodata._ZN15Texture2DShaderC2Ev.str1.1
                0x00000000000114c0       0x7d Texture2DShader.o
 *fill*         0x000000000001153d        0x3 
 .rodata._ZTSSt9bad_alloc
                0x0000000000011540        0xd /opt/devkitpro/devkitPPC/lib/gcc/powerpc-eabi/8.2.0/../../../../powerpc-eabi/lib/libstdc++.a(bad_alloc.o)
                0x0000000000011540                _ZTSSt9bad_alloc
 *fill*         0x000000000001154d        0x3 
 .rodata._ZTISt9bad_alloc
                0x0000000000011550        0xc /opt/devkitpro/devkitPPC/lib/gcc/powerpc-eabi/8.2.0/../../../../powerpc-eabi/lib/libstdc++.a(bad_alloc.o)
                0x0000000000011550                _ZTISt9bad_alloc
 .rodata._ZTVSt9bad_alloc
                0x000000000001155c       0x14 /opt/devkitpro/devkitPPC/lib/gcc/powerpc-eabi/8.2.0/../../../../powerpc-eabi/lib/libstdc++.a(bad_alloc.o)
                0x000000000001155c                _ZTVSt9bad_alloc
 .rodata._ZNKSt9bad_alloc4whatEv.str1.4
                0x0000000000011570        0xf /opt/devkitpro/devkitPPC/lib/gcc/powerpc-eabi/8.2.0/../../../../powerpc-eabi/lib/libstdc++.a(bad_alloc.o)
 *fill*         0x000000000001157f        0x1 
 .rodata._ZL28read_encoded_value_with_basehjPKhPj
                0x0000000000011580       0x34 /opt/devkitpro/devkitPPC/lib/gcc/powerpc-eabi/8.2.0/../../../../powerpc-eabi/lib/libstdc++.a(eh_personality.o)
 .rodata._ZTSN10__cxxabiv117__class_type_infoE
                0x00000000000115b4       0x22 /opt/devkitpro/devkitPPC/lib/gcc/powerpc-eabi/8.2.0/../../../../powerpc-eabi/lib/libstdc++.a(class_type_info.o)
                0x00000000000115b4                _ZTSN10__cxxabiv117__class_type_infoE
 *fill*         0x00000000000115d6        0x2 
 .rodata._ZTIN10__cxxabiv117__class_type_infoE
                0x00000000000115d8        0xc /opt/devkitpro/devkitPPC/lib/gcc/powerpc-eabi/8.2.0/../../../../powerpc-eabi/lib/libstdc++.a(class_type_info.o)
                0x00000000000115d8                _ZTIN10__cxxabiv117__class_type_infoE
 .rodata._ZTVN10__cxxabiv117__class_type_infoE
                0x00000000000115e4       0x2c /opt/devkitpro/devkitPPC/lib/gcc/powerpc-eabi/8.2.0/../../../../powerpc-eabi/lib/libstdc++.a(class_type_info.o)
                0x00000000000115e4                _ZTVN10__cxxabiv117__class_type_infoE
 .rodata._ZTSSt9exception
                0x0000000000011610        0xd /opt/devkitpro/devkitPPC/lib/gcc/powerpc-eabi/8.2.0/../../../../powerpc-eabi/lib/libstdc++.a(eh_exception.o)
                0x0000000000011610                _ZTSSt9exception
 *fill*         0x000000000001161d        0x3 
 .rodata._ZTSSt13bad_exception
                0x0000000000011620       0x12 /opt/devkitpro/devkitPPC/lib/gcc/powerpc-eabi/8.2.0/../../../../powerpc-eabi/lib/libstdc++.a(eh_exception.o)
                0x0000000000011620                _ZTSSt13bad_exception
 *fill*         0x0000000000011632        0x2 
 .rodata._ZTISt13bad_exception
                0x0000000000011634        0xc /opt/devkitpro/devkitPPC/lib/gcc/powerpc-eabi/8.2.0/../../../../powerpc-eabi/lib/libstdc++.a(eh_exception.o)
                0x0000000000011634                _ZTISt13bad_exception
 .rodata._ZTSN10__cxxabiv115__forced_unwindE
                0x0000000000011640       0x20 /opt/devkitpro/devkitPPC/lib/gcc/powerpc-eabi/8.2.0/../../../../powerpc-eabi/lib/libstdc++.a(eh_exception.o)
                0x0000000000011640                _ZTSN10__cxxabiv115__forced_unwindE
 .rodata._ZTSN10__cxxabiv119__foreign_exceptionE
                0x0000000000011660       0x24 /opt/devkitpro/devkitPPC/lib/gcc/powerpc-eabi/8.2.0/../../../../powerpc-eabi/lib/libstdc++.a(eh_exception.o)
                0x0000000000011660                _ZTSN10__cxxabiv119__foreign_exceptionE
 .rodata._ZTVSt13bad_exception
                0x0000000000011684       0x14 /opt/devkitpro/devkitPPC/lib/gcc/powerpc-eabi/8.2.0/../../../../powerpc-eabi/lib/libstdc++.a(eh_exception.o)
                0x0000000000011684                _ZTVSt13bad_exception
 .rodata._ZNKSt13bad_exception4whatEv.str1.4
                0x0000000000011698       0x13 /opt/devkitpro/devkitPPC/lib/gcc/powerpc-eabi/8.2.0/../../../../powerpc-eabi/lib/libstdc++.a(eh_exception.o)
 *fill*         0x00000000000116ab        0x1 
 .rodata._ZTSN9__gnu_cxx24__concurrence_lock_errorE
                0x00000000000116ac       0x27 /opt/devkitpro/devkitPPC/lib/gcc/powerpc-eabi/8.2.0/../../../../powerpc-eabi/lib/libstdc++.a(eh_alloc.o)
                0x00000000000116ac                _ZTSN9__gnu_cxx24__concurrence_lock_errorE
 *fill*         0x00000000000116d3        0x1 
 .rodata._ZTIN9__gnu_cxx24__concurrence_lock_errorE
                0x00000000000116d4        0xc /opt/devkitpro/devkitPPC/lib/gcc/powerpc-eabi/8.2.0/../../../../powerpc-eabi/lib/libstdc++.a(eh_alloc.o)
                0x00000000000116d4                _ZTIN9__gnu_cxx24__concurrence_lock_errorE
 .rodata._ZTSN9__gnu_cxx26__concurrence_unlock_errorE
                0x00000000000116e0       0x29 /opt/devkitpro/devkitPPC/lib/gcc/powerpc-eabi/8.2.0/../../../../powerpc-eabi/lib/libstdc++.a(eh_alloc.o)
                0x00000000000116e0                _ZTSN9__gnu_cxx26__concurrence_unlock_errorE
 *fill*         0x0000000000011709        0x3 
 .rodata._ZTIN9__gnu_cxx26__concurrence_unlock_errorE
                0x000000000001170c        0xc /opt/devkitpro/devkitPPC/lib/gcc/powerpc-eabi/8.2.0/../../../../powerpc-eabi/lib/libstdc++.a(eh_alloc.o)
                0x000000000001170c                _ZTIN9__gnu_cxx26__concurrence_unlock_errorE
 .rodata._ZTVN9__gnu_cxx24__concurrence_lock_errorE
                0x0000000000011718       0x14 /opt/devkitpro/devkitPPC/lib/gcc/powerpc-eabi/8.2.0/../../../../powerpc-eabi/lib/libstdc++.a(eh_alloc.o)
                0x0000000000011718                _ZTVN9__gnu_cxx24__concurrence_lock_errorE
 .rodata._ZTVN9__gnu_cxx26__concurrence_unlock_errorE
                0x000000000001172c       0x14 /opt/devkitpro/devkitPPC/lib/gcc/powerpc-eabi/8.2.0/../../../../powerpc-eabi/lib/libstdc++.a(eh_alloc.o)
                0x000000000001172c                _ZTVN9__gnu_cxx26__concurrence_unlock_errorE
 .rodata._ZNK9__gnu_cxx24__concurrence_lock_error4whatEv.str1.4
                0x0000000000011740       0x24 /opt/devkitpro/devkitPPC/lib/gcc/powerpc-eabi/8.2.0/../../../../powerpc-eabi/lib/libstdc++.a(eh_alloc.o)
 .rodata._ZNK9__gnu_cxx26__concurrence_unlock_error4whatEv.str1.4
                0x0000000000011764       0x26 /opt/devkitpro/devkitPPC/lib/gcc/powerpc-eabi/8.2.0/../../../../powerpc-eabi/lib/libstdc++.a(eh_alloc.o)
 *fill*         0x000000000001178a        0x2 
 .rodata._ZTSN10__cxxabiv120__si_class_type_infoE
                0x000000000001178c       0x25 /opt/devkitpro/devkitPPC/lib/gcc/powerpc-eabi/8.2.0/../../../../powerpc-eabi/lib/libstdc++.a(si_class_type_info.o)
                0x000000000001178c                _ZTSN10__cxxabiv120__si_class_type_infoE
 *fill*         0x00000000000117b1        0x3 
 .rodata._ZTIN10__cxxabiv120__si_class_type_infoE
                0x00000000000117b4        0xc /opt/devkitpro/devkitPPC/lib/gcc/powerpc-eabi/8.2.0/../../../../powerpc-eabi/lib/libstdc++.a(si_class_type_info.o)
                0x00000000000117b4                _ZTIN10__cxxabiv120__si_class_type_infoE
 .rodata._ZTVN10__cxxabiv120__si_class_type_infoE
                0x00000000000117c0       0x2c /opt/devkitpro/devkitPPC/lib/gcc/powerpc-eabi/8.2.0/../../../../powerpc-eabi/lib/libstdc++.a(si_class_type_info.o)
                0x00000000000117c0                _ZTVN10__cxxabiv120__si_class_type_infoE
 .rodata._ZTSSt9type_info
                0x00000000000117ec        0xd /opt/devkitpro/devkitPPC/lib/gcc/powerpc-eabi/8.2.0/../../../../powerpc-eabi/lib/libstdc++.a(tinfo.o)
                0x00000000000117ec                _ZTSSt9type_info
 *fill*         0x00000000000117f9        0x3 
 .rodata.read_encoded_value_with_base
                0x00000000000117fc       0x34 /opt/devkitpro/devkitPPC/lib/gcc/powerpc-eabi/8.2.0/libgcc.a(unwind-dw2.o)
 .rodata.execute_cfa_program
                0x0000000000011830       0xc0 /opt/devkitpro/devkitPPC/lib/gcc/powerpc-eabi/8.2.0/libgcc.a(unwind-dw2.o)
 .rodata.execute_stack_op
                0x00000000000118f0      0x410 /opt/devkitpro/devkitPPC/lib/gcc/powerpc-eabi/8.2.0/libgcc.a(unwind-dw2.o)
 .rodata.uw_update_context_1
                0x0000000000011d00       0x18 /opt/devkitpro/devkitPPC/lib/gcc/powerpc-eabi/8.2.0/libgcc.a(unwind-dw2.o)
 .rodata.read_encoded_value_with_base
                0x0000000000011d18       0x34 /opt/devkitpro/devkitPPC/lib/gcc/powerpc-eabi/8.2.0/libgcc.a(unwind-dw2-fde.o)
 .rodata.terminator.10039
                0x0000000000011d4c        0x8 /opt/devkitpro/devkitPPC/lib/gcc/powerpc-eabi/8.2.0/libgcc.a(unwind-dw2-fde.o)
 .rodata.abort.str1.4
                0x0000000000011d54        0xf /opt/devkitpro/devkitPPC/lib/gcc/powerpc-eabi/8.2.0/../../../../powerpc-eabi/lib/libsysbase.a(abort.o)
 *fill*         0x0000000000011d63        0x1 
 .rodata.AddDevice.str1.4
                0x0000000000011d64        0x8 /opt/devkitpro/devkitPPC/lib/gcc/powerpc-eabi/8.2.0/../../../../powerpc-eabi/lib/libsysbase.a(iosupport.o)
 .rodata.dotab_stdnull
                0x0000000000011d6c       0x70 /opt/devkitpro/devkitPPC/lib/gcc/powerpc-eabi/8.2.0/../../../../powerpc-eabi/lib/libsysbase.a(iosupport.o)
                0x0000000000011d6c                dotab_stdnull
 .rodata.str1.4
                0x0000000000011ddc       0x48 /opt/devkitpro/devkitPPC/lib/gcc/powerpc-eabi/8.2.0/../../../../powerpc-eabi/lib/libc.a(lib_a-locale.o)
                                         0x4c (size before relaxing)
 .rodata._ctype_
                0x0000000000011e24      0x101 /opt/devkitpro/devkitPPC/lib/gcc/powerpc-eabi/8.2.0/../../../../powerpc-eabi/lib/libc.a(lib_a-ctype_.o)
                0x0000000000011e24                _ctype_
 *fill*         0x0000000000011f25        0x3 
 .rodata._svfprintf_r
                0x0000000000011f28      0x164 /opt/devkitpro/devkitPPC/lib/gcc/powerpc-eabi/8.2.0/../../../../powerpc-eabi/lib/libc.a(lib_a-svfprintf.o)
 .rodata._svfprintf_r.cst4
                0x000000000001208c        0x4 /opt/devkitpro/devkitPPC/lib/gcc/powerpc-eabi/8.2.0/../../../../powerpc-eabi/lib/libc.a(lib_a-svfprintf.o)
 *fill*         0x000000000001208c        0x4 
 .rodata._svfprintf_r.cst8
                0x0000000000012090        0x8 /opt/devkitpro/devkitPPC/lib/gcc/powerpc-eabi/8.2.0/../../../../powerpc-eabi/lib/libc.a(lib_a-svfprintf.o)
 .rodata._svfprintf_r.str1.4
                0x0000000000012098       0x42 /opt/devkitpro/devkitPPC/lib/gcc/powerpc-eabi/8.2.0/../../../../powerpc-eabi/lib/libc.a(lib_a-svfprintf.o)
 *fill*         0x00000000000120da        0x2 
 .rodata.blanks.5781
                0x00000000000120dc       0x10 /opt/devkitpro/devkitPPC/lib/gcc/powerpc-eabi/8.2.0/../../../../powerpc-eabi/lib/libc.a(lib_a-svfprintf.o)
 .rodata.zeroes.5782
                0x00000000000120ec       0x10 /opt/devkitpro/devkitPPC/lib/gcc/powerpc-eabi/8.2.0/../../../../powerpc-eabi/lib/libc.a(lib_a-svfprintf.o)
 .rodata._dtoa_r.cst4
                0x00000000000120fc       0x1c /opt/devkitpro/devkitPPC/lib/gcc/powerpc-eabi/8.2.0/../../../../powerpc-eabi/lib/libc.a(lib_a-dtoa.o)
                                         0x24 (size before relaxing)
 .rodata._dtoa_r.cst8
                0x0000000000012118       0x18 /opt/devkitpro/devkitPPC/lib/gcc/powerpc-eabi/8.2.0/../../../../powerpc-eabi/lib/libc.a(lib_a-dtoa.o)
 .rodata._dtoa_r.str1.4
                0x0000000000012130       0x10 /opt/devkitpro/devkitPPC/lib/gcc/powerpc-eabi/8.2.0/../../../../powerpc-eabi/lib/libc.a(lib_a-dtoa.o)
                                         0x12 (size before relaxing)
 .rodata.__mprec_bigtens
                0x0000000000012140       0x28 /opt/devkitpro/devkitPPC/lib/gcc/powerpc-eabi/8.2.0/../../../../powerpc-eabi/lib/libc.a(lib_a-mprec.o)
                0x0000000000012140                __mprec_bigtens
 .rodata.__mprec_tens
                0x0000000000012168       0xc8 /opt/devkitpro/devkitPPC/lib/gcc/powerpc-eabi/8.2.0/../../../../powerpc-eabi/lib/libc.a(lib_a-mprec.o)
                0x0000000000012168                __mprec_tens
 .rodata.p05.4568
                0x0000000000012230        0xc /opt/devkitpro/devkitPPC/lib/gcc/powerpc-eabi/8.2.0/../../../../powerpc-eabi/lib/libc.a(lib_a-mprec.o)

.eh_frame_hdr   0x000000000001223c        0x0
 .eh_frame_hdr  0x000000000001223c        0x0 main.o

.eh_frame       0x000000000001223c        0x0
 .eh_frame      0x000000000001223c        0x0 main.o

.sbss           0x000000000001223c        0x4
 *(.sbss*)
 .sbss._ZN15Texture2DShader14shaderInstanceE
                0x000000000001223c        0x4 Texture2DShader.o
                0x000000000001223c                _ZN15Texture2DShader14shaderInstanceE

.bss            0x0000000000012240     0xa3ec
 *(.bss*)
 .bss.ctx       0x0000000000012240     0xa100 main.o
                0x0000000000012240                ctx
 .bss.main_cbuf
                0x000000000001c340       0x9c main.o
                0x000000000001c340                main_cbuf
 .bss.sampler   0x000000000001c3dc        0xc main.o
                0x000000000001c3dc                sampler
 .bss.tex       0x000000000001c3e8       0x9c main.o
                0x000000000001c3e8                tex
 .bss._ZN12_GLOBAL__N_113__new_handlerE
                0x000000000001c484        0x4 /opt/devkitpro/devkitPPC/lib/gcc/powerpc-eabi/8.2.0/../../../../powerpc-eabi/lib/libstdc++.a(new_handler.o)
 .bss._ZN12_GLOBAL__N_114emergency_poolE
                0x000000000001c488       0x38 /opt/devkitpro/devkitPPC/lib/gcc/powerpc-eabi/8.2.0/../../../../powerpc-eabi/lib/libstdc++.a(eh_alloc.o)
 .bss._ZL10eh_globals
                0x000000000001c4c0        0x8 /opt/devkitpro/devkitPPC/lib/gcc/powerpc-eabi/8.2.0/../../../../powerpc-eabi/lib/libstdc++.a(eh_globals.o)
 .bss._ZL4init  0x000000000001c4c8        0x8 /opt/devkitpro/devkitPPC/lib/gcc/powerpc-eabi/8.2.0/../../../../powerpc-eabi/lib/libstdc++.a(eh_globals.o)
 .bss.__gthread_impl
                0x000000000001c4d0       0x74 /opt/devkitpro/devkitPPC/lib/gcc/powerpc-eabi/8.2.0/libgcc.a(gthr-dkp.o)
                0x000000000001c4d0                __gthread_impl
 .bss.dwarf_reg_size_table
                0x000000000001c544       0x70 /opt/devkitpro/devkitPPC/lib/gcc/powerpc-eabi/8.2.0/libgcc.a(unwind-dw2.o)
 .bss.once_regsizes.10373
                0x000000000001c5b4        0x4 /opt/devkitpro/devkitPPC/lib/gcc/powerpc-eabi/8.2.0/libgcc.a(unwind-dw2.o)
 .bss.marker.9933
                0x000000000001c5b8        0x4 /opt/devkitpro/devkitPPC/lib/gcc/powerpc-eabi/8.2.0/libgcc.a(unwind-dw2-fde.o)
 .bss.object_mutex
                0x000000000001c5bc       0x2c /opt/devkitpro/devkitPPC/lib/gcc/powerpc-eabi/8.2.0/libgcc.a(unwind-dw2-fde.o)
 .bss.once.9818
                0x000000000001c5e8        0x4 /opt/devkitpro/devkitPPC/lib/gcc/powerpc-eabi/8.2.0/libgcc.a(unwind-dw2-fde.o)
 .bss.seen_objects
                0x000000000001c5ec        0x4 /opt/devkitpro/devkitPPC/lib/gcc/powerpc-eabi/8.2.0/libgcc.a(unwind-dw2-fde.o)
 .bss.unseen_objects
                0x000000000001c5f0        0x4 /opt/devkitpro/devkitPPC/lib/gcc/powerpc-eabi/8.2.0/libgcc.a(unwind-dw2-fde.o)
 .bss.__syscalls
                0x000000000001c5f4       0x34 /opt/devkitpro/devkitPPC/lib/gcc/powerpc-eabi/8.2.0/../../../../powerpc-eabi/lib/libsysbase.a(syscall_support.o)
                0x000000000001c5f4                __syscalls
 .bss.__hndl_lock
                0x000000000001c628        0x4 /opt/devkitpro/devkitPPC/lib/gcc/powerpc-eabi/8.2.0/../../../../powerpc-eabi/lib/libsysbase.a(handle_manager.o)

.iplt           0x000000000001c630        0x0
 .iplt          0x000000000001c630        0x0 main.o

.got2
 *(.got2*)

.gcc_except_table
                0x000000000001c62c       0xe9
 *(.gcc_except_table*)
 .gcc_except_table._ZN15Texture2DShader8instanceEv
                0x000000000001c62c       0x10 main.o
 .gcc_except_table._ZN15Texture2DShaderC2Ev
                0x000000000001c63c       0x27 Texture2DShader.o
 *fill*         0x000000000001c663        0x1 
 .gcc_except_table.__gxx_personality_v0
                0x000000000001c664       0x18 /opt/devkitpro/devkitPPC/lib/gcc/powerpc-eabi/8.2.0/../../../../powerpc-eabi/lib/libstdc++.a(eh_personality.o)
 .gcc_except_table.__cxa_call_unexpected
                0x000000000001c67c       0x20 /opt/devkitpro/devkitPPC/lib/gcc/powerpc-eabi/8.2.0/../../../../powerpc-eabi/lib/libstdc++.a(eh_personality.o)
 .gcc_except_table._ZN12_GLOBAL__N_14pool4freeEPv.constprop.3
                0x000000000001c69c       0x25 /opt/devkitpro/devkitPPC/lib/gcc/powerpc-eabi/8.2.0/../../../../powerpc-eabi/lib/libstdc++.a(eh_alloc.o)
 *fill*         0x000000000001c6c1        0x3 
 .gcc_except_table._ZN12_GLOBAL__N_14pool8allocateEj.constprop.4
                0x000000000001c6c4       0x21 /opt/devkitpro/devkitPPC/lib/gcc/powerpc-eabi/8.2.0/../../../../powerpc-eabi/lib/libstdc++.a(eh_alloc.o)
 .gcc_except_table.__cxa_allocate_exception
                0x000000000001c6e5        0x4 /opt/devkitpro/devkitPPC/lib/gcc/powerpc-eabi/8.2.0/../../../../powerpc-eabi/lib/libstdc++.a(eh_alloc.o)
 .gcc_except_table.__cxa_free_exception
                0x000000000001c6e9        0x4 /opt/devkitpro/devkitPPC/lib/gcc/powerpc-eabi/8.2.0/../../../../powerpc-eabi/lib/libstdc++.a(eh_alloc.o)
 .gcc_except_table.__cxa_get_globals_fast
                0x000000000001c6ed        0x4 /opt/devkitpro/devkitPPC/lib/gcc/powerpc-eabi/8.2.0/../../../../powerpc-eabi/lib/libstdc++.a(eh_globals.o)
 .gcc_except_table.__cxa_get_globals
                0x000000000001c6f1        0x4 /opt/devkitpro/devkitPPC/lib/gcc/powerpc-eabi/8.2.0/../../../../powerpc-eabi/lib/libstdc++.a(eh_globals.o)
 *fill*         0x000000000001c6f5        0x3 
 .gcc_except_table._ZN10__cxxabiv111__terminateEPFvvE
                0x000000000001c6f8       0x1d /opt/devkitpro/devkitPPC/lib/gcc/powerpc-eabi/8.2.0/../../../../powerpc-eabi/lib/libstdc++.a(eh_terminate.o)

.fimport_avm
 *(.fimport_avm)

.fimport_camera
 *(.fimport_camera)

.fimport_coreinit
                0x000000000001c720     0x2578
 *(.fimport_coreinit)
 .fimport_coreinit
                0x000000000001c720     0x2578 /opt/wut/lib/libcoreinit.a(coreinit.s.obj)
                0x000000000001c728                COSError
                0x000000000001c730                COSInfo
                0x000000000001c738                COSVReport
                0x000000000001c740                COSVerbose
                0x000000000001c748                COSWarn
                0x000000000001c750                CoreInitDefaultHeap
                0x000000000001c758                DCBlockFlush
                0x000000000001c760                DCCoreFlushAll
                0x000000000001c768                DCFlushRange
                0x000000000001c770                DCFlushRangeNoSync
                0x000000000001c778                DCInvalidateRange
                0x000000000001c780                DCStoreRange
                0x000000000001c788                DCStoreRangeNoSync
                0x000000000001c790                DCTouchRange
                0x000000000001c798                DCZeroRange
                0x000000000001c7a0                DK_BlockClose
                0x000000000001c7a8                DK_BlockOpen
                0x000000000001c7b0                DK_BlockRead
                0x000000000001c7b8                DK_BlockReadAsync
                0x000000000001c7c0                DK_BlockWrite
                0x000000000001c7c8                DK_BlockWriteAsync
                0x000000000001c7d0                DK_CharClose
                0x000000000001c7d8                DK_CharOpen
                0x000000000001c7e0                DK_CharRead
                0x000000000001c7e8                DK_CharReadAsync
                0x000000000001c7f0                DK_CharWrite
                0x000000000001c7f8                DK_CharWriteAsync
                0x000000000001c800                DK_PCharClose
                0x000000000001c808                DK_PCharFlushWrite
                0x000000000001c810                DK_PCharGetStatistics
                0x000000000001c818                DK_PCharOpen
                0x000000000001c820                DK_PCharReadAsync
                0x000000000001c828                DK_PCharWrite
                0x000000000001c830                DK_PCharWriteAsync
                0x000000000001c838                DK_PPCBlockShimInit
                0x000000000001c840                DK_PPCCharShimInit
                0x000000000001c848                DK_ShimInit
                0x000000000001c850                DisassemblePPCOpcode
                0x000000000001c858                DisassemblePPCRange
                0x000000000001c860                ENVGetEnvironmentVariable
                0x000000000001c868                FSAAddClient
                0x000000000001c870                FSAAppendFile
                0x000000000001c878                FSAAppendFileAsync
                0x000000000001c880                FSAAppendFileEx
                0x000000000001c888                FSAAppendFileExAsync
                0x000000000001c890                FSAChangeDir
                0x000000000001c898                FSAChangeDirAsync
                0x000000000001c8a0                FSAChangeMode
                0x000000000001c8a8                FSAChangeModeAsync
                0x000000000001c8b0                FSACloseDir
                0x000000000001c8b8                FSACloseDirAsync
                0x000000000001c8c0                FSACloseFile
                0x000000000001c8c8                FSACloseFileAsync
                0x000000000001c8d0                FSADelClient
                0x000000000001c8d8                FSAFlushFile
                0x000000000001c8e0                FSAFlushFileAsync
                0x000000000001c8e8                FSAFlushMultiQuota
                0x000000000001c8f0                FSAFlushMultiQuotaAsync
                0x000000000001c8f8                FSAFlushQuota
                0x000000000001c900                FSAFlushQuotaAsync
                0x000000000001c908                FSAFlushVolume
                0x000000000001c910                FSAFlushVolumeAsync
                0x000000000001c918                FSAFreeAsyncResult
                0x000000000001c920                FSAGetAsyncResult
                0x000000000001c928                FSAGetBadBlockInfo
                0x000000000001c930                FSAGetBadBlockInfoAsync
                0x000000000001c938                FSAGetClientNum
                0x000000000001c940                FSAGetCwd
                0x000000000001c948                FSAGetCwdAsync
                0x000000000001c950                FSAGetDeviceInfo
                0x000000000001c958                FSAGetDeviceInfoAsync
                0x000000000001c960                FSAGetDirSize
                0x000000000001c968                FSAGetDirSizeAsync
                0x000000000001c970                FSAGetEntryNum
                0x000000000001c978                FSAGetEntryNumAsync
                0x000000000001c980                FSAGetError
                0x000000000001c988                FSAGetErrorAsync
                0x000000000001c990                FSAGetFileBlockAddress
                0x000000000001c998                FSAGetFileBlockAddressAsync
                0x000000000001c9a0                FSAGetFileSystemInfo
                0x000000000001c9a8                FSAGetFileSystemInfoAsync
                0x000000000001c9b0                FSAGetFragmentBlockInfo
                0x000000000001c9b8                FSAGetFragmentBlockInfoAsync
                0x000000000001c9c0                FSAGetFreeSpaceSize
                0x000000000001c9c8                FSAGetFreeSpaceSizeAsync
                0x000000000001c9d0                FSAGetJournalFreeSpaceSize
                0x000000000001c9d8                FSAGetJournalFreeSpaceSizeAsync
                0x000000000001c9e0                FSAGetPosFile
                0x000000000001c9e8                FSAGetPosFileAsync
                0x000000000001c9f0                FSAGetStat
                0x000000000001c9f8                FSAGetStatAsync
                0x000000000001ca00                FSAGetStatFile
                0x000000000001ca08                FSAGetStatFileAsync
                0x000000000001ca10                FSAGetStatusStr
                0x000000000001ca18                FSAGetTransactionBlockPoolAttributes
                0x000000000001ca20                FSAGetVolumeInfo
                0x000000000001ca28                FSAGetVolumeInfoAsync
                0x000000000001ca30                FSAInit
                0x000000000001ca38                FSAIsEof
                0x000000000001ca40                FSAIsEofAsync
                0x000000000001ca48                FSAMakeDir
                0x000000000001ca50                FSAMakeDirAsync
                0x000000000001ca58                FSAMakeQuota
                0x000000000001ca60                FSAMakeQuotaAsync
                0x000000000001ca68                FSAMount
                0x000000000001ca70                FSAMountAsync
                0x000000000001ca78                FSAOpenDir
                0x000000000001ca80                FSAOpenDirAsync
                0x000000000001ca88                FSAOpenFile
                0x000000000001ca90                FSAOpenFileAsync
                0x000000000001ca98                FSAOpenFileByStat
                0x000000000001caa0                FSAOpenFileByStatAsync
                0x000000000001caa8                FSAOpenFileEx
                0x000000000001cab0                FSAOpenFileExAsync
                0x000000000001cab8                FSAReadDir
                0x000000000001cac0                FSAReadDirAsync
                0x000000000001cac8                FSAReadFile
                0x000000000001cad0                FSAReadFileAsync
                0x000000000001cad8                FSAReadFileWithPos
                0x000000000001cae0                FSAReadFileWithPosAsync
                0x000000000001cae8                FSARegisterFlushQuota
                0x000000000001caf0                FSARegisterFlushQuotaAsync
                0x000000000001caf8                FSARemove
                0x000000000001cb00                FSARemoveAsync
                0x000000000001cb08                FSARename
                0x000000000001cb10                FSARenameAsync
                0x000000000001cb18                FSARewindDir
                0x000000000001cb20                FSARewindDirAsync
                0x000000000001cb28                FSARollbackQuota
                0x000000000001cb30                FSARollbackQuotaAsync
                0x000000000001cb38                FSARollbackQuotaForce
                0x000000000001cb40                FSARollbackVolume
                0x000000000001cb48                FSARollbackVolumeAsync
                0x000000000001cb50                FSASetPosFile
                0x000000000001cb58                FSASetPosFileAsync
                0x000000000001cb60                FSAShutdown
                0x000000000001cb68                FSATruncateFile
                0x000000000001cb70                FSATruncateFileAsync
                0x000000000001cb78                FSAUnmount
                0x000000000001cb80                FSAUnmountAsync
                0x000000000001cb88                FSAWriteFile
                0x000000000001cb90                FSAWriteFileAsync
                0x000000000001cb98                FSAWriteFileWithPos
                0x000000000001cba0                FSAWriteFileWithPosAsync
                0x000000000001cba8                FSAddClient
                0x000000000001cbb0                FSAddClientEx
                0x000000000001cbb8                FSAppendFile
                0x000000000001cbc0                FSAppendFileAsync
                0x000000000001cbc8                FSBindMount
                0x000000000001cbd0                FSBindMountAsync
                0x000000000001cbd8                FSBindUnmount
                0x000000000001cbe0                FSBindUnmountAsync
                0x000000000001cbe8                FSCancelAllCommands
                0x000000000001cbf0                FSCancelCommand
                0x000000000001cbf8                FSChangeDir
                0x000000000001cc00                FSChangeDirAsync
                0x000000000001cc08                FSChangeMode
                0x000000000001cc10                FSChangeModeAsync
                0x000000000001cc18                FSCloseDir
                0x000000000001cc20                FSCloseDirAsync
                0x000000000001cc28                FSCloseFile
                0x000000000001cc30                FSCloseFileAsync
                0x000000000001cc38                FSDelClient
                0x000000000001cc40                FSDumpLastErrorLog
                0x000000000001cc48                FSFlushFile
                0x000000000001cc50                FSFlushFileAsync
                0x000000000001cc58                FSFlushMultiQuota
                0x000000000001cc60                FSFlushMultiQuotaAsync
                0x000000000001cc68                FSFlushQuota
                0x000000000001cc70                FSFlushQuotaAsync
                0x000000000001cc78                FSGetAsyncResult
                0x000000000001cc80                FSGetClientNum
                0x000000000001cc88                FSGetCmdPriority
                0x000000000001cc90                FSGetCurrentCmdBlock
                0x000000000001cc98                FSGetCwd
                0x000000000001cca0                FSGetCwdAsync
                0x000000000001cca8                FSGetDirSize
                0x000000000001ccb0                FSGetDirSizeAsync
                0x000000000001ccb8                FSGetEmulatedError
                0x000000000001ccc0                FSGetEntryNum
                0x000000000001ccc8                FSGetEntryNumAsync
                0x000000000001ccd0                FSGetErrorCodeForViewer
                0x000000000001ccd8                FSGetFSMessage
                0x000000000001cce0                FSGetFileBlockAddress
                0x000000000001cce8                FSGetFileBlockAddressAsync
                0x000000000001ccf0                FSGetFileSystemInfo
                0x000000000001ccf8                FSGetFileSystemInfoAsync
                0x000000000001cd00                FSGetFreeSpaceSize
                0x000000000001cd08                FSGetFreeSpaceSizeAsync
                0x000000000001cd10                FSGetLastError
                0x000000000001cd18                FSGetLastErrorCodeForViewer
                0x000000000001cd20                FSGetMountSource
                0x000000000001cd28                FSGetMountSourceAsync
                0x000000000001cd30                FSGetMountSourceNext
                0x000000000001cd38                FSGetMountSourceNextAsync
                0x000000000001cd40                FSGetPosFile
                0x000000000001cd48                FSGetPosFileAsync
                0x000000000001cd50                FSGetStat
                0x000000000001cd58                FSGetStatAsync
                0x000000000001cd60                FSGetStatFile
                0x000000000001cd68                FSGetStatFileAsync
                0x000000000001cd70                FSGetStateChangeInfo
                0x000000000001cd78                FSGetUserData
                0x000000000001cd80                FSGetVolumeInfo
                0x000000000001cd88                FSGetVolumeInfoAsync
                0x000000000001cd90                FSGetVolumeState
                0x000000000001cd98                FSInit
                0x000000000001cda0                FSInitCmdBlock
                0x000000000001cda8                FSIsEof
                0x000000000001cdb0                FSIsEofAsync
                0x000000000001cdb8                FSMakeDir
                0x000000000001cdc0                FSMakeDirAsync
                0x000000000001cdc8                FSMakeLink
                0x000000000001cdd0                FSMakeLinkAsync
                0x000000000001cdd8                FSMakeQuota
                0x000000000001cde0                FSMakeQuotaAsync
                0x000000000001cde8                FSMount
                0x000000000001cdf0                FSMountAsync
                0x000000000001cdf8                FSOpenDir
                0x000000000001ce00                FSOpenDirAsync
                0x000000000001ce08                FSOpenFile
                0x000000000001ce10                FSOpenFileAsync
                0x000000000001ce18                FSOpenFileByStat
                0x000000000001ce20                FSOpenFileByStatAsync
                0x000000000001ce28                FSOpenFileEx
                0x000000000001ce30                FSOpenFileExAsync
                0x000000000001ce38                FSReadDir
                0x000000000001ce40                FSReadDirAsync
                0x000000000001ce48                FSReadFile
                0x000000000001ce50                FSReadFileAsync
                0x000000000001ce58                FSReadFileWithPos
                0x000000000001ce60                FSReadFileWithPosAsync
                0x000000000001ce68                FSRegisterFlushQuota
                0x000000000001ce70                FSRegisterFlushQuotaAsync
                0x000000000001ce78                FSRemove
                0x000000000001ce80                FSRemoveAsync
                0x000000000001ce88                FSRemoveQuota
                0x000000000001ce90                FSRemoveQuotaAsync
                0x000000000001ce98                FSRename
                0x000000000001cea0                FSRenameAsync
                0x000000000001cea8                FSRewindDir
                0x000000000001ceb0                FSRewindDirAsync
                0x000000000001ceb8                FSRollbackQuota
                0x000000000001cec0                FSRollbackQuotaAsync
                0x000000000001cec8                FSSetCmdPriority
                0x000000000001ced0                FSSetEmulatedError
                0x000000000001ced8                FSSetPosFile
                0x000000000001cee0                FSSetPosFileAsync
                0x000000000001cee8                FSSetStateChangeNotification
                0x000000000001cef0                FSSetUserData
                0x000000000001cef8                FSShutdown
                0x000000000001cf00                FSTimeToCalendarTime
                0x000000000001cf08                FSTruncateFile
                0x000000000001cf10                FSTruncateFileAsync
                0x000000000001cf18                FSUnmount
                0x000000000001cf20                FSUnmountAsync
                0x000000000001cf28                FSWriteFile
                0x000000000001cf30                FSWriteFileAsync
                0x000000000001cf38                FSWriteFileWithPos
                0x000000000001cf40                FSWriteFileWithPosAsync
                0x000000000001cf48                HIOClose
                0x000000000001cf50                HIOInit
                0x000000000001cf58                HIOOpenEx
                0x000000000001cf60                HIORead
                0x000000000001cf68                HIOReadAsyncEx
                0x000000000001cf70                HIOShutdown
                0x000000000001cf78                HIOWrite
                0x000000000001cf80                HIOWriteAsyncEx
                0x000000000001cf88                ICBlockInvalidate
                0x000000000001cf90                ICInvalidateRange
                0x000000000001cf98                IMDisableAPD
                0x000000000001cfa0                IMDisableDim
                0x000000000001cfa8                IMEnableAPD
                0x000000000001cfb0                IMEnableDim
                0x000000000001cfb8                IMEndAPDVideoMode
                0x000000000001cfc0                IMGetAPDPeriod
                0x000000000001cfc8                IMGetDimEnableDRC
                0x000000000001cfd0                IMGetDimEnableTV
                0x000000000001cfd8                IMGetDimPeriod
                0x000000000001cfe0                IMGetTimeBeforeAPD
                0x000000000001cfe8                IMGetTimeBeforeDimming
                0x000000000001cff0                IMIsAPDEnabled
                0x000000000001cff8                IMIsAPDEnabledBySysSettings
                0x000000000001d000                IMIsDimEnabled
                0x000000000001d008                IMSetDimEnableDRC
                0x000000000001d010                IMSetDimEnableTV
                0x000000000001d018                IMStartAPDVideoMode
                0x000000000001d020                IM_CancelGetEventNotify
                0x000000000001d028                IM_Close
                0x000000000001d030                IM_GetEventNotify
                0x000000000001d038                IM_GetHomeButtonParams
                0x000000000001d040                IM_GetNvParameter
                0x000000000001d048                IM_GetNvParameterWithoutHandleAndItb
                0x000000000001d050                IM_GetParameter
                0x000000000001d058                IM_GetParameters
                0x000000000001d060                IM_GetRuntimeParameter
                0x000000000001d068                IM_GetTimerRemaining
                0x000000000001d070                IM_GetTimerRemainingSeconds
                0x000000000001d078                IM_Open
                0x000000000001d080                IM_SetDeviceState
                0x000000000001d088                IM_SetDeviceStateEx
                0x000000000001d090                IM_SetHomeButtonParams
                0x000000000001d098                IM_SetNvParameter
                0x000000000001d0a0                IM_SetNvParameterWithoutHandleAndItb
                0x000000000001d0a8                IM_SetParameter
                0x000000000001d0b0                IM_SetRuntimeParameter
                0x000000000001d0b8                IM_SetSystemPolicy
                0x000000000001d0c0                IM_SetTimerElpasedSeconds
                0x000000000001d0c8                IOS_Close
                0x000000000001d0d0                IOS_CloseAsync
                0x000000000001d0d8                IOS_CloseAsyncEx
                0x000000000001d0e0                IOS_Ioctl
                0x000000000001d0e8                IOS_IoctlAsync
                0x000000000001d0f0                IOS_IoctlAsyncEx
                0x000000000001d0f8                IOS_Ioctlv
                0x000000000001d100                IOS_IoctlvAsync
                0x000000000001d108                IOS_IoctlvAsyncEx
                0x000000000001d110                IOS_Open
                0x000000000001d118                IOS_OpenAsync
                0x000000000001d120                IOS_OpenAsyncEx
                0x000000000001d128                IOS_Read
                0x000000000001d130                IOS_ReadAsync
                0x000000000001d138                IOS_ReadAsyncEx
                0x000000000001d140                IOS_Seek
                0x000000000001d148                IOS_SeekAsync
                0x000000000001d150                IOS_SeekAsyncEx
                0x000000000001d158                IOS_Write
                0x000000000001d160                IOS_WriteAsync
                0x000000000001d168                IOS_WriteAsyncEx
                0x000000000001d170                IPCBufPoolAllocate
                0x000000000001d178                IPCBufPoolCreate
                0x000000000001d180                IPCBufPoolFree
                0x000000000001d188                IPCBufPoolGetAttributes
                0x000000000001d190                IPCDriverClose
                0x000000000001d198                IPCDriverDisplayStatistics
                0x000000000001d1a0                IPCDriverInit
                0x000000000001d1a8                IPCDriverOpen
                0x000000000001d1b0                LCAlloc
                0x000000000001d1b8                LCDealloc
                0x000000000001d1c0                LCDisableDMA
                0x000000000001d1c8                LCEnableDMA
                0x000000000001d1d0                LCGetAllocatableSize
                0x000000000001d1d8                LCGetDMAQueueLength
                0x000000000001d1e0                LCGetMaxSize
                0x000000000001d1e8                LCGetUnallocated
                0x000000000001d1f0                LCHardwareIsAvailable
                0x000000000001d1f8                LCIsDMAEnabled
                0x000000000001d200                LCLoadDMABlocks
                0x000000000001d208                LCStoreDMABlocks
                0x000000000001d210                LCWaitDMAQueue
                0x000000000001d218                MCPFlush_Finalize
                0x000000000001d220                MCPFlush_FlushLockedRootQuota
                0x000000000001d228                MCPFlush_FlushRootQuota
                0x000000000001d230                MCPFlush_GetRootQuotaPath
                0x000000000001d238                MCPFlush_Initialize
                0x000000000001d240                MCPFlush_LockRootQuota
                0x000000000001d248                MCPFlush_RollbackLockedRootQuota
                0x000000000001d250                MCPFlush_UnlockRootQuota
                0x000000000001d258                MCP_AocCloseTitle
                0x000000000001d260                MCP_AocGetOpenInfo
                0x000000000001d268                MCP_AocLockTitle
                0x000000000001d270                MCP_AocOpenTitle
                0x000000000001d278                MCP_AocTestScanned
                0x000000000001d280                MCP_AocUnlockTitle
                0x000000000001d288                MCP_AppTagCreate
                0x000000000001d290                MCP_AppTagFlush
                0x000000000001d298                MCP_AppTagGetEnability
                0x000000000001d2a0                MCP_AppTagGetSize
                0x000000000001d2a8                MCP_AppTagReadWithPos
                0x000000000001d2b0                MCP_AppTagRemove
                0x000000000001d2b8                MCP_AppTagRollback
                0x000000000001d2c0                MCP_AppTagSetEnability
                0x000000000001d2c8                MCP_AppTagTruncateWithPos
                0x000000000001d2d0                MCP_AppTagWriteWithPos
                0x000000000001d2d8                MCP_ChangeEcoSettings
                0x000000000001d2e0                MCP_ChangeEcoWDSetting
                0x000000000001d2e8                MCP_ChangeStandbySettings
                0x000000000001d2f0                MCP_ChangeSystemMemoryEmuMode
                0x000000000001d2f8                MCP_ChangeSystemMode
                0x000000000001d300                MCP_Close
                0x000000000001d308                MCP_CompatCopyFile
                0x000000000001d310                MCP_CompatExLaunch
                0x000000000001d318                MCP_CompatExPrepareLaunch
                0x000000000001d320                MCP_CompatGetVersion
                0x000000000001d328                MCP_CompatHaiCreateCompanionFile
                0x000000000001d330                MCP_CompatListOwnedTitles
                0x000000000001d338                MCP_CompatLoadAVFile
                0x000000000001d340                MCP_CompatWagonCreateContext
                0x000000000001d348                MCP_CompatWagonDeleteArchiveHash
                0x000000000001d350                MCP_CompatWagonDeleteContext
                0x000000000001d358                MCP_CompatWagonDestinationComplete
                0x000000000001d360                MCP_CompatWagonDestinationPrepare
                0x000000000001d368                MCP_CompatWagonSourceComplete
                0x000000000001d370                MCP_CompatWagonSourcePrepare
                0x000000000001d378                MCP_CopyGetRequiredSize
                0x000000000001d380                MCP_CopyTitleAbort
                0x000000000001d388                MCP_CopyTitleAsync
                0x000000000001d390                MCP_CopyTitleDoneAsync
                0x000000000001d398                MCP_CopyTitleWithoutFlushAsync
                0x000000000001d3a0                MCP_CreateLinkedTitlePackage
                0x000000000001d3a8                MCP_DeleteContentAsync
                0x000000000001d3b0                MCP_DeleteLinkedTitlePackage
                0x000000000001d3b8                MCP_DeleteTicketsAsync
                0x000000000001d3c0                MCP_DeleteTitleAbort
                0x000000000001d3c8                MCP_DeleteTitleAsync
                0x000000000001d3d0                MCP_DeleteTitleDoneAsync
                0x000000000001d3d8                MCP_DeleteTitleWithoutFlushAsync
                0x000000000001d3e0                MCP_DeleteUserData
                0x000000000001d3e8                MCP_DeleteUserDataWithException
                0x000000000001d3f0                MCP_DemoLaunchGetRemainder
                0x000000000001d3f8                MCP_DeviceList
                0x000000000001d400                MCP_DisablePowerOffOnCrash
                0x000000000001d408                MCP_ExternalStorageLock
                0x000000000001d410                MCP_ExternalStorageUnlock
                0x000000000001d418                MCP_FindContentInfos
                0x000000000001d420                MCP_FormatExternalStorage
                0x000000000001d428                MCP_FullDeviceList
                0x000000000001d430                MCP_Get4SecondOffStatus
                0x000000000001d438                MCP_GetCompatDeviceId
                0x000000000001d440                MCP_GetContentInfos
                0x000000000001d448                MCP_GetDefaultEcoTitleId
                0x000000000001d450                MCP_GetDefaultTitleId
                0x000000000001d458                MCP_GetDeviceId
                0x000000000001d460                MCP_GetEcoSettings
                0x000000000001d468                MCP_GetEcoWDSetting
                0x000000000001d470                MCP_GetErrorCodeForViewer
                0x000000000001d478                MCP_GetFastRelaunchEnable
                0x000000000001d480                MCP_GetInstalledContentCount
                0x000000000001d488                MCP_GetInstalledContentIndices
                0x000000000001d490                MCP_GetInstalledTitleVersion
                0x000000000001d498                MCP_GetLastRawError
                0x000000000001d4a0                MCP_GetOverlayAppInfo
                0x000000000001d4a8                MCP_GetOwnTitleInfo
                0x000000000001d4b0                MCP_GetPatchedTitleId
                0x000000000001d4b8                MCP_GetPreciseTitleSize
                0x000000000001d4c0                MCP_GetSATALimiterState
                0x000000000001d4c8                MCP_GetStandbySettings
                0x000000000001d4d0                MCP_GetSysProdSettings
                0x000000000001d4d8                MCP_GetSyslogFilterMask
                0x000000000001d4e0                MCP_GetSystemCrashFlag
                0x000000000001d4e8                MCP_GetSystemCrashLog
                0x000000000001d4f0                MCP_GetSystemCrashLogDescription
                0x000000000001d4f8                MCP_GetSystemLog
                0x000000000001d500                MCP_GetSystemMemoryEmuMode
                0x000000000001d508                MCP_GetSystemMode
                0x000000000001d510                MCP_GetSystemVersion
                0x000000000001d518                MCP_GetTicketItemRights
                0x000000000001d520                MCP_GetTicketViews
                0x000000000001d528                MCP_GetTitleId
                0x000000000001d530                MCP_GetTitleInfo
                0x000000000001d538                MCP_GetTitleInfoByDevice
                0x000000000001d540                MCP_GetTitleInfoByTitleAndDevice
                0x000000000001d548                MCP_GetTitleInfoByTitleAndDeviceType
                0x000000000001d550                MCP_GetTitleInfoByTitleAndIndexedDevice
                0x000000000001d558                MCP_GetTitleSATALimiterState
                0x000000000001d560                MCP_GetTitleSize
                0x000000000001d568                MCP_InitializeIvs
                0x000000000001d570                MCP_InstallCleanupAbort
                0x000000000001d578                MCP_InstallCleanupAsync
                0x000000000001d580                MCP_InstallCleanupWithoutFlushAsync
                0x000000000001d588                MCP_InstallGetAocSize
                0x000000000001d590                MCP_InstallGetAocSize2
                0x000000000001d598                MCP_InstallGetAvailableUpdateOp
                0x000000000001d5a0                MCP_InstallGetInfo
                0x000000000001d5a8                MCP_InstallGetProgress
                0x000000000001d5b0                MCP_InstallGetRequiredSize
                0x000000000001d5b8                MCP_InstallGetSize
                0x000000000001d5c0                MCP_InstallGetTargetDevice
                0x000000000001d5c8                MCP_InstallSetCache
                0x000000000001d5d0                MCP_InstallSetTargetDevice
                0x000000000001d5d8                MCP_InstallSetTargetUsb
                0x000000000001d5e0                MCP_InstallTitleAbort
                0x000000000001d5e8                MCP_InstallTitleAsync
                0x000000000001d5f0                MCP_InstallTitleWithPatchMountAsync
                0x000000000001d5f8                MCP_InstallUtilGetTitleEnability
                0x000000000001d600                MCP_InstallUtilIsResumeAvailable
                0x000000000001d608                MCP_LaunchCompat
                0x000000000001d610                MCP_ListOwnedTitles
                0x000000000001d618                MCP_NominalTitleGetTitleId
                0x000000000001d620                MCP_Open
                0x000000000001d628                MCP_PatchCheckTitleVersion
                0x000000000001d630                MCP_PatchCheckTitleVersionByPath
                0x000000000001d638                MCP_PatchDeleteVersionList
                0x000000000001d640                MCP_PatchGetLatestVersion
                0x000000000001d648                MCP_PatchGetVersion
                0x000000000001d650                MCP_PatchGetVersionListVersion
                0x000000000001d658                MCP_PatchSetLatestVersion
                0x000000000001d660                MCP_PatchSetRequiredVersion
                0x000000000001d668                MCP_PatchSetVersionListVersion
                0x000000000001d670                MCP_PreloadTitleFolder
                0x000000000001d678                MCP_RequestPowerOff
                0x000000000001d680                MCP_ResetOnPanicEnable
                0x000000000001d688                MCP_ResetOnPanicState
                0x000000000001d690                MCP_RightCheckLaunchable
                0x000000000001d698                MCP_SetDefaultEcoTitleId
                0x000000000001d6a0                MCP_SetDefaultTitleId
                0x000000000001d6a8                MCP_SetFastRelaunchEnable
                0x000000000001d6b0                MCP_SetSATALimiterState
                0x000000000001d6b8                MCP_SetSysProdSettings
                0x000000000001d6c0                MCP_SetSyslogFilterMask
                0x000000000001d6c8                MCP_TitleCount
                0x000000000001d6d0                MCP_TitleList
                0x000000000001d6d8                MCP_TitleListByAppAndDevice
                0x000000000001d6e0                MCP_TitleListByAppAndDeviceType
                0x000000000001d6e8                MCP_TitleListByAppType
                0x000000000001d6f0                MCP_TitleListByAppTypeFlagsAndDeviceType
                0x000000000001d6f8                MCP_TitleListByDevice
                0x000000000001d700                MCP_TitleListByDeviceType
                0x000000000001d708                MCP_TitleListByUniqueId
                0x000000000001d710                MCP_TitleListByUniqueIdAndDeviceType
                0x000000000001d718                MCP_TitleListByUniqueIdAndDeviceTypeAndAppType
                0x000000000001d720                MCP_TitleListByUniqueIdAndIndexedDeviceAndAppType
                0x000000000001d728                MCP_TitleListUpdateCancel
                0x000000000001d730                MCP_TitleListUpdateGetNext
                0x000000000001d738                MCP_TriggerCrashLogCollection
                0x000000000001d740                MCP_TriggerCrashLogCollectionEx
                0x000000000001d748                MCP_UninstallTitleAsync
                0x000000000001d750                MCP_UpdateCheckAsync
                0x000000000001d758                MCP_UpdateCheckContext
                0x000000000001d760                MCP_UpdateCheckResume
                0x000000000001d768                MCP_UpdateCheckUpdaterVersion
                0x000000000001d770                MCP_UpdateClearContextAsync
                0x000000000001d778                MCP_UpdateContextReadUserFlag
                0x000000000001d780                MCP_UpdateContextSetUserFlag
                0x000000000001d788                MCP_UpdateGetPathByAppTypeAsync
                0x000000000001d790                MCP_UpdateGetProgress
                0x000000000001d798                MCP_UpdateGetUpdater
                0x000000000001d7a0                MCP_UpdateLaunchUpdater
                0x000000000001d7a8                MCP_UpdatePerformAsync
                0x000000000001d7b0                MCP_UpdatePrepareUpdaterAsync
                0x000000000001d7b8                MCP_UpdateSetUpdater
                0x000000000001d7c0                MCP_WagonUCheckArchiveExists
                0x000000000001d7c8                MCP_WagonUCreateArchive
                0x000000000001d7d0                MCP_WagonUDeleteArchive
                0x000000000001d7d8                MCP_WagonUEstimateArchiveSize
                0x000000000001d7e0                MCP_WagonUEstimateArchiveSizeEx
                0x000000000001d7e8                MCP_WagonUFormatDestination
                0x000000000001d7f0                MCP_WagonUGetProgress
                0x000000000001d7f8                MCP_WagonUInstallArchive
                0x000000000001d800                MCP_WagonUSetSessionId
                0x000000000001d808                MEMAddBlockHeapTracking
                0x000000000001d810                MEMAdjustExpHeap
                0x000000000001d818                MEMAdjustFrmHeap
                0x000000000001d820                MEMAllocFromAllocator
                0x000000000001d828                MEMAllocFromBlockHeapAt
                0x000000000001d830                MEMAllocFromBlockHeapEx
                0x000000000001d838                MEMAllocFromExpHeapEx
                0x000000000001d840                MEMAllocFromFrmHeapEx
                0x000000000001d848                MEMAllocFromUnitHeap
                0x000000000001d850                MEMAppendListObject
                0x000000000001d858                MEMCalcHeapSizeForUnitHeap
                0x000000000001d860                MEMCheckExpHeap
                0x000000000001d868                MEMCheckForMBlockExpHeap
                0x000000000001d870                MEMCheckHeap
                0x000000000001d878                MEMCountFreeBlockForUnitHeap
                0x000000000001d880                MEMCreateExpHeapEx
                0x000000000001d888                MEMCreateFrmHeapEx
                0x000000000001d890                MEMCreateUnitHeapEx
                0x000000000001d898                MEMCreateUserHeapHandle
                0x000000000001d8a0                MEMDestroyBlockHeap
                0x000000000001d8a8                MEMDestroyExpHeap
                0x000000000001d8b0                MEMDestroyFrmHeap
                0x000000000001d8b8                MEMDestroyUnitHeap
                0x000000000001d8c0                MEMDumpHeap
                0x000000000001d8c8                MEMFindContainHeap
                0x000000000001d8d0                MEMFindParentHeap
                0x000000000001d8d8                MEMFreeByStateToFrmHeap
                0x000000000001d8e0                MEMFreeToAllocator
                0x000000000001d8e8                MEMFreeToBlockHeap
                0x000000000001d8f0                MEMFreeToExpHeap
                0x000000000001d8f8                MEMFreeToFrmHeap
                0x000000000001d900                MEMFreeToUnitHeap
                0x000000000001d908                MEMGetAllocDirForMBlockExpHeap
                0x000000000001d910                MEMGetAllocModeForExpHeap
                0x000000000001d918                MEMGetAllocatableSizeForBlockHeapEx
                0x000000000001d920                MEMGetAllocatableSizeForExpHeapEx
                0x000000000001d928                MEMGetAllocatableSizeForFrmHeapEx
                0x000000000001d930                MEMGetArena
                0x000000000001d938                MEMGetBaseHeapHandle
                0x000000000001d940                MEMGetFillValForHeap
                0x000000000001d948                MEMGetGroupIDForExpHeap
                0x000000000001d950                MEMGetGroupIDForMBlockExpHeap
                0x000000000001d958                MEMGetNextListObject
                0x000000000001d960                MEMGetNthListObject
                0x000000000001d968                MEMGetPrevListObject
                0x000000000001d970                MEMGetSizeForMBlockExpHeap
                0x000000000001d978                MEMGetTotalFreeSizeForBlockHeap
                0x000000000001d980                MEMGetTotalFreeSizeForExpHeap
                0x000000000001d988                MEMGetTrackingLeftInBlockHeap
                0x000000000001d990                MEMInitAllocatorForBlockHeap
                0x000000000001d998                MEMInitAllocatorForDefaultHeap
                0x000000000001d9a0                MEMInitAllocatorForExpHeap
                0x000000000001d9a8                MEMInitAllocatorForFrmHeap
                0x000000000001d9b0                MEMInitAllocatorForUnitHeap
                0x000000000001d9b8                MEMInitBlockHeap
                0x000000000001d9c0                MEMInitList
                0x000000000001d9c8                MEMInsertListObject
                0x000000000001d9d0                MEMPrependListObject
                0x000000000001d9d8                MEMRecordStateForFrmHeap
                0x000000000001d9e0                MEMRemoveListObject
                0x000000000001d9e8                MEMResizeForMBlockExpHeap
                0x000000000001d9f0                MEMResizeForMBlockFrmHeap
                0x000000000001d9f8                MEMSetAllocModeForExpHeap
                0x000000000001da00                MEMSetBaseHeapHandle
                0x000000000001da08                MEMSetFillValForHeap
                0x000000000001da10                MEMSetGroupIDForExpHeap
                0x000000000001da18                MEMUseMarginOfAlignmentForExpHeap
                0x000000000001da20                MEMVisitAllocatedForExpHeap
                0x000000000001da28                MEMiGetFreeEndForFrmHeap
                0x000000000001da30                MEMiGetFreeStartForFrmHeap
                0x000000000001da38                MEMiIsEmptyExpHeap
                0x000000000001da40                MPDequeTask
                0x000000000001da48                MPDequeTasks
                0x000000000001da50                MPEnqueTask
                0x000000000001da58                MPGetTaskInfo
                0x000000000001da60                MPGetTaskQInfo
                0x000000000001da68                MPGetTaskUserData
                0x000000000001da70                MPInitTask
                0x000000000001da78                MPInitTaskQ
                0x000000000001da80                MPPrintTaskQStats
                0x000000000001da88                MPResetTaskQ
                0x000000000001da90                MPRunTask
                0x000000000001da98                MPRunTasksFromTaskQ
                0x000000000001daa0                MPSetTaskUserData
                0x000000000001daa8                MPStartTaskQ
                0x000000000001dab0                MPStopTaskQ
                0x000000000001dab8                MPTermTask
                0x000000000001dac0                MPTermTaskQ
                0x000000000001dac8                MPWaitTaskQ
                0x000000000001dad0                MPWaitTaskQWithTimeout
                0x000000000001dad8                MasterAgent_LoadNotify
                0x000000000001dae0                NSYSTEST_Do
                0x000000000001dae8                OSAcquireSpinLock
                0x000000000001daf0                OSAddAtomic
                0x000000000001daf8                OSAddAtomic64
                0x000000000001db00                OSAllocFromSystem
                0x000000000001db08                OSAllocSysHealth
                0x000000000001db10                OSAllocVirtAddr
                0x000000000001db18                OSAndAtomic
                0x000000000001db20                OSAndAtomic64
                0x000000000001db28                OSBlockLogSave
                0x000000000001db30                OSBlockMove
                0x000000000001db38                OSBlockSet
                0x000000000001db40                OSBlockThreadsOnExit
                0x000000000001db48                OSCalendarTimeToTicks
                0x000000000001db50                OSCancelAlarm
                0x000000000001db58                OSCancelAlarms
                0x000000000001db60                OSCancelThread
                0x000000000001db68                OSCheckActiveThreads
                0x000000000001db70                OSCheckStopwatch
                0x000000000001db78                OSCheckThreadStackUsage
                0x000000000001db80                OSClearContext
                0x000000000001db88                OSClearStack
                0x000000000001db90                OSClearThreadStackUsage
                0x000000000001db98                OSCodegenCopy
                0x000000000001dba0                OSCoherencyBarrier
                0x000000000001dba8                OSCompareAndSwapAtomic
                0x000000000001dbb0                OSCompareAndSwapAtomic64
                0x000000000001dbb8                OSCompareAndSwapAtomicEx
                0x000000000001dbc0                OSCompareAndSwapAtomicEx64
                0x000000000001dbc8                OSConsoleWrite
                0x000000000001dbd0                OSContinueThread
                0x000000000001dbd8                OSCopyFromClipboard
                0x000000000001dbe0                OSCopyToClipboard
                0x000000000001dbe8                OSCreateAlarm
                0x000000000001dbf0                OSCreateAlarmEx
                0x000000000001dbf8                OSCreateThread
                0x000000000001dc00                OSCreateThreadType
                0x000000000001dc08                OSDeRegisterSystemModeCallback
                0x000000000001dc10                OSDetachThread
                0x000000000001dc18                OSDisableAllThreadFPUException
                0x000000000001dc20                OSDisableContextFPUException
                0x000000000001dc28                OSDisableInterrupts
                0x000000000001dc30                OSDisableOverlayArena
                0x000000000001dc38                OSDisableOverlayArenaDev
                0x000000000001dc40                OSDisableOverlayArenaWithTimeout
                0x000000000001dc48                OSDisableOverlayArenaWithTimeoutDev
                0x000000000001dc50                OSDisableThreadFPUException
                0x000000000001dc58                OSDriver_CopyFromSaveArea
                0x000000000001dc60                OSDriver_CopyToSaveArea
                0x000000000001dc68                OSDriver_Deregister
                0x000000000001dc70                OSDriver_Register
                0x000000000001dc78                OSDumpContext
                0x000000000001dc80                OSDumpStopwatch
                0x000000000001dc88                OSDynLoad_Acquire
                0x000000000001dc90                OSDynLoad_AcquireContainingModule
                0x000000000001dc98                OSDynLoad_AddNofifyCallback
                0x000000000001dca0                OSDynLoad_AddNotifyCallback
                0x000000000001dca8                OSDynLoad_DelNotifyCallback
                0x000000000001dcb0                OSDynLoad_FindExport
                0x000000000001dcb8                OSDynLoad_FindTag
                0x000000000001dcc0                OSDynLoad_GetAllocator
                0x000000000001dcc8                OSDynLoad_GetLoaderHeapStatistics
                0x000000000001dcd0                OSDynLoad_GetModuleName
                0x000000000001dcd8                OSDynLoad_GetNumberOfRPLs
                0x000000000001dce0                OSDynLoad_GetRPLInfo
                0x000000000001dce8                OSDynLoad_GetTLSAllocator
                0x000000000001dcf0                OSDynLoad_IsModuleLoaded
                0x000000000001dcf8                OSDynLoad_Release
                0x000000000001dd00                OSDynLoad_SetAllocator
                0x000000000001dd08                OSDynLoad_SetTLSAllocator
                0x000000000001dd10                OSEffectiveToPhysical
                0x000000000001dd18                OSEnableAllThreadFPUException
                0x000000000001dd20                OSEnableForegroundExit
                0x000000000001dd28                OSEnableHomeButtonMenu
                0x000000000001dd30                OSEnableInterrupts
                0x000000000001dd38                OSEnableOverlayArena
                0x000000000001dd40                OSEnableOverlayArenaDev
                0x000000000001dd48                OSEnableOverlayArenaWithTimeout
                0x000000000001dd50                OSEnableOverlayArenaWithTimeoutDev
                0x000000000001dd58                OSEnableThreadFPUException
                0x000000000001dd60                OSEnforceInorderIO
                0x000000000001dd68                OSExitThread
                0x000000000001dd70                OSFastCond_Init
                0x000000000001dd78                OSFastCond_Signal
                0x000000000001dd80                OSFastCond_Wait
                0x000000000001dd88                OSFastMutex_Init
                0x000000000001dd90                OSFastMutex_Lock
                0x000000000001dd98                OSFastMutex_TryLock
                0x000000000001dda0                OSFastMutex_Unlock
                0x000000000001dda8                OSFatal
                0x000000000001ddb0                OSForceFullRelaunch
                0x000000000001ddb8                OSFreeSysHealth
                0x000000000001ddc0                OSFreeToSystem
                0x000000000001ddc8                OSFreeVirtAddr
                0x000000000001ddd0                OSGetActiveThreadLink
                0x000000000001ddd8                OSGetAlarmFromQueue
                0x000000000001dde0                OSGetAlarmUserData
                0x000000000001dde8                OSGetArgcArgv
                0x000000000001ddf0                OSGetAtomic64
                0x000000000001ddf8                OSGetAvailPhysAddrRange
                0x000000000001de00                OSGetBootPMFlags
                0x000000000001de08                OSGetCallArgs
                0x000000000001de10                OSGetCodegenCore
                0x000000000001de18                OSGetCodegenMode
                0x000000000001de20                OSGetCodegenVirtAddrRange
                0x000000000001de28                OSGetConsoleType
                0x000000000001de30                OSGetCoreCount
                0x000000000001de38                OSGetCoreId
                0x000000000001de40                OSGetCrashDetailLevel
                0x000000000001de48                OSGetCrashDumpType
                0x000000000001de50                OSGetCrashInfo
                0x000000000001de58                OSGetCurrentContext
                0x000000000001de60                OSGetCurrentFPUContext
                0x000000000001de68                OSGetCurrentPMState
                0x000000000001de70                OSGetCurrentThread
                0x000000000001de78                OSGetDataPhysAddrRange
                0x000000000001de80                OSGetDefaultAppIOQueue
                0x000000000001de88                OSGetDefaultThread
                0x000000000001de90                OSGetForegroundBucket
                0x000000000001de98                OSGetForegroundBucketFreeArea
                0x000000000001dea0                OSGetHardwareBoardRevision
                0x000000000001dea8                OSGetHardwareBoardType
                0x000000000001deb0                OSGetHardwareVersion
                0x000000000001deb8                OSGetInfo
                0x000000000001dec0                OSGetLastError
                0x000000000001dec8                OSGetLastPMState
                0x000000000001ded0                OSGetMainCoreId
                0x000000000001ded8                OSGetMapVirtAddrRange
                0x000000000001dee0                OSGetMemBound
                0x000000000001dee8                OSGetOSID
                0x000000000001def0                OSGetOverlayArenaRange
                0x000000000001def8                OSGetOverlayArenaRangeDev
                0x000000000001df00                OSGetPFID
                0x000000000001df08                OSGetPerformanceNumbers
                0x000000000001df10                OSGetProcessInfo
                0x000000000001df18                OSGetScreenCapturePermission
                0x000000000001df20                OSGetScreenCapturePermissionEx
                0x000000000001df28                OSGetSecCodeGenMode
                0x000000000001df30                OSGetSecurityLevel
                0x000000000001df38                OSGetSemaphoreCount
                0x000000000001df40                OSGetSharedData
                0x000000000001df48                OSGetShutdownFlags
                0x000000000001df50                OSGetShutdownReason
                0x000000000001df58                OSGetStackPointer
                0x000000000001df60                OSGetSymbolName
                0x000000000001df68                OSGetSysHealth
                0x000000000001df70                OSGetSystemInfo
                0x000000000001df78                OSGetSystemMessageQueue
                0x000000000001df80                OSGetSystemMode
                0x000000000001df88                OSGetSystemTick
                0x000000000001df90                OSGetSystemTime
                0x000000000001df98                OSGetSystemVersion
                0x000000000001dfa0                OSGetThreadAffinity
                0x000000000001dfa8                OSGetThreadCoreTime
                0x000000000001dfb0                OSGetThreadName
                0x000000000001dfb8                OSGetThreadPriority
                0x000000000001dfc0                OSGetThreadSpecific
                0x000000000001dfc8                OSGetTick
                0x000000000001dfd0                OSGetTime
                0x000000000001dfd8                OSGetTimestampLevel
                0x000000000001dfe0                OSGetTitleID
                0x000000000001dfe8                OSGetUPID
                0x000000000001dff0                OSGetUserStackPointer
                0x000000000001dff8                OSHandle_AddRef
                0x000000000001e000                OSHandle_Alloc
                0x000000000001e008                OSHandle_InitTable
                0x000000000001e010                OSHandle_Release
                0x000000000001e018                OSHandle_TranslateAndAddRef
                0x000000000001e020                OSInitAlarmQueue
                0x000000000001e028                OSInitAlarmQueueEx
                0x000000000001e030                OSInitCond
                0x000000000001e038                OSInitCondEx
                0x000000000001e040                OSInitContext
                0x000000000001e048                OSInitCoroutine
                0x000000000001e050                OSInitEvent
                0x000000000001e058                OSInitEventEx
                0x000000000001e060                OSInitMessageQueue
                0x000000000001e068                OSInitMessageQueueEx
                0x000000000001e070                OSInitMutex
                0x000000000001e078                OSInitMutexEx
                0x000000000001e080                OSInitRendezvous
                0x000000000001e088                OSInitSemaphore
                0x000000000001e090                OSInitSemaphoreEx
                0x000000000001e098                OSInitSpinLock
                0x000000000001e0a0                OSInitStopwatch
                0x000000000001e0a8                OSInitThreadQueue
                0x000000000001e0b0                OSInitThreadQueueEx
                0x000000000001e0b8                OSIopShell_InjectCommand
                0x000000000001e0c0                OSIsAddressRangeDCValid
                0x000000000001e0c8                OSIsAddressValid
                0x000000000001e0d0                OSIsBlockThreadsOnExit
                0x000000000001e0d8                OSIsColdBoot
                0x000000000001e0e0                OSIsCompatBoot
                0x000000000001e0e8                OSIsDebuggerInitialized
                0x000000000001e0f0                OSIsDebuggerPresent
                0x000000000001e0f8                OSIsECOBoot
                0x000000000001e100                OSIsECOMode
                0x000000000001e108                OSIsEnabledOverlayArena
                0x000000000001e110                OSIsEnabledOverlayArenaDev
                0x000000000001e118                OSIsHomeButtonMenuEnabled
                0x000000000001e120                OSIsInterruptEnabled
                0x000000000001e128                OSIsMainCore
                0x000000000001e130                OSIsNormalBoot
                0x000000000001e138                OSIsOffBoot
                0x000000000001e140                OSIsProdMode
                0x000000000001e148                OSIsSchedulerLocked
                0x000000000001e150                OSIsSelfRefreshBoot
                0x000000000001e158                OSIsStandbyBoot
                0x000000000001e160                OSIsThreadSuspended
                0x000000000001e168                OSIsThreadTerminated
                0x000000000001e170                OSJoinThread
                0x000000000001e178                OSLaunchTitleByPathl
                0x000000000001e180                OSLaunchTitleByPathv
                0x000000000001e188                OSLaunchTitlel
                0x000000000001e190                OSLaunchTitlev
                0x000000000001e198                OSLoadContext
                0x000000000001e1a0                OSLoadCoroutine
                0x000000000001e1a8                OSLoadFPUContext
                0x000000000001e1b0                OSLockMutex
                0x000000000001e1b8                OSLogArgs
                0x000000000001e1c0                OSLogBuffer
                0x000000000001e1c8                OSLogFunc
                0x000000000001e1d0                OSLogPrintf
                0x000000000001e1d8                OSLogReport
                0x000000000001e1e0                OSLogRetrieve
                0x000000000001e1e8                OSLogSaveCrashDump
                0x000000000001e1f0                OSLogSetFilterPolicy
                0x000000000001e1f8                OSMapMemory
                0x000000000001e200                OSMemoryBarrier
                0x000000000001e208                OSModifyRegister16
                0x000000000001e210                OSOrAtomic
                0x000000000001e218                OSOrAtomic64
                0x000000000001e220                OSPanic
                0x000000000001e228                OSPeekMessage
                0x000000000001e230                OSQueryVirtAddr
                0x000000000001e238                OSReadRegister16
                0x000000000001e240                OSReadRegister32
                0x000000000001e248                OSRebootCrash
                0x000000000001e250                OSReceiveMessage
                0x000000000001e258                OSRegisterSystemModeCallback
                0x000000000001e260                OSReleaseForeground
                0x000000000001e268                OSReleaseSpinLock
                0x000000000001e270                OSReport
                0x000000000001e278                OSReportInfo
                0x000000000001e280                OSReportVerbose
                0x000000000001e288                OSReportWarn
                0x000000000001e290                OSRequestFastExit
                0x000000000001e298                OSReschedule
                0x000000000001e2a0                OSResetEvent
                0x000000000001e2a8                OSResetStopwatch
                0x000000000001e2b0                OSRestartCrashedApp
                0x000000000001e2b8                OSRestartGame
                0x000000000001e2c0                OSRestoreInterrupts
                0x000000000001e2c8                OSResumeThread
                0x000000000001e2d0                OSRunThread
                0x000000000001e2d8                OSRunThreadsOnExit
                0x000000000001e2e0                OSSaveContext
                0x000000000001e2e8                OSSaveCoroutine
                0x000000000001e2f0                OSSaveFPUContext
                0x000000000001e2f8                OSSavesDone_ReadyToRelease
                0x000000000001e300                OSScreenClearBufferEx
                0x000000000001e308                OSScreenEnableEx
                0x000000000001e310                OSScreenFlipBuffersEx
                0x000000000001e318                OSScreenGetBufferSizeEx
                0x000000000001e320                OSScreenInit
                0x000000000001e328                OSScreenPutFontEx
                0x000000000001e330                OSScreenPutPixelEx
                0x000000000001e338                OSScreenSetBufferEx
                0x000000000001e340                OSScreenShutdown
                0x000000000001e348                OSSendAppSwitchRequest
                0x000000000001e350                OSSendFatalError
                0x000000000001e358                OSSendMessage
                0x000000000001e360                OSSendPolicyRequest
                0x000000000001e368                OSSetAlarm
                0x000000000001e370                OSSetAlarmEx
                0x000000000001e378                OSSetAlarmTag
                0x000000000001e380                OSSetAlarmUserData
                0x000000000001e388                OSSetAtomic64
                0x000000000001e390                OSSetCrashDetailLevel
                0x000000000001e398                OSSetCrashDumpType
                0x000000000001e3a0                OSSetCurrentContext
                0x000000000001e3a8                OSSetCurrentFPUContext
                0x000000000001e3b0                OSSetDABR
                0x000000000001e3b8                OSSetExceptionCallback
                0x000000000001e3c0                OSSetExceptionCallbackEx
                0x000000000001e3c8                OSSetIABR
                0x000000000001e3d0                OSSetInfo
                0x000000000001e3d8                OSSetMemBound
                0x000000000001e3e0                OSSetPanicCallback
                0x000000000001e3e8                OSSetPerformanceMonitor
                0x000000000001e3f0                OSSetPeriodicAlarm
                0x000000000001e3f8                OSSetPeriodicAlarmEx
                0x000000000001e400                OSSetScreenCapturePermission
                0x000000000001e408                OSSetScreenCapturePermissionEx
                0x000000000001e410                OSSetSwitchThreadCallback
                0x000000000001e418                OSSetThreadAffinity
                0x000000000001e420                OSSetThreadCancelState
                0x000000000001e428                OSSetThreadCleanupCallback
                0x000000000001e430                OSSetThreadDeallocator
                0x000000000001e438                OSSetThreadName
                0x000000000001e440                OSSetThreadPriority
                0x000000000001e448                OSSetThreadRunQuantum
                0x000000000001e450                OSSetThreadSpecific
                0x000000000001e458                OSSetThreadStackUsage
                0x000000000001e460                OSSetTimestampLevel
                0x000000000001e468                OSShutdown
                0x000000000001e470                OSSignalCond
                0x000000000001e478                OSSignalEvent
                0x000000000001e480                OSSignalEventAll
                0x000000000001e488                OSSignalSemaphore
                0x000000000001e490                OSSleepThread
                0x000000000001e498                OSSleepTicks
                0x000000000001e4a0                OSStartStopwatch
                0x000000000001e4a8                OSStopStopwatch
                0x000000000001e4b0                OSStopWatchLap
                0x000000000001e4b8                OSStopWatchReset
                0x000000000001e4c0                OSStopWatchStart
                0x000000000001e4c8                OSStopWatchStop
                0x000000000001e4d0                OSSupressConsoleOutput
                0x000000000001e4d8                OSSuspendThread
                0x000000000001e4e0                OSSwapAtomic
                0x000000000001e4e8                OSSwapAtomic64
                0x000000000001e4f0                OSSwitchCoroutine
                0x000000000001e4f8                OSSwitchFiber
                0x000000000001e500                OSSwitchFiberEx
                0x000000000001e508                OSSwitchSecCodeGenMode
                0x000000000001e510                OSSwitchStack
                0x000000000001e518                OSTestAndClearAtomic
                0x000000000001e520                OSTestAndClearAtomic64
                0x000000000001e528                OSTestAndSetAtomic
                0x000000000001e530                OSTestAndSetAtomic64
                0x000000000001e538                OSTestThreadCancel
                0x000000000001e540                OSTest_Do
                0x000000000001e548                OSTicksToCalendarTime
                0x000000000001e550                OSTryAcquireSpinLock
                0x000000000001e558                OSTryAcquireSpinLockWithTimeout
                0x000000000001e560                OSTryLockMutex
                0x000000000001e568                OSTryWaitSemaphore
                0x000000000001e570                OSUninterruptibleSpinLock_Acquire
                0x000000000001e578                OSUninterruptibleSpinLock_Release
                0x000000000001e580                OSUninterruptibleSpinLock_TryAcquire
                0x000000000001e588                OSUninterruptibleSpinLock_TryAcquireWithTimeout
                0x000000000001e590                OSUnlockMutex
                0x000000000001e598                OSUnmapMemory
                0x000000000001e5a0                OSVReport
                0x000000000001e5a8                OSWaitAlarm
                0x000000000001e5b0                OSWaitCond
                0x000000000001e5b8                OSWaitEvent
                0x000000000001e5c0                OSWaitEventWithTimeout
                0x000000000001e5c8                OSWaitMicroseconds
                0x000000000001e5d0                OSWaitRendezvous
                0x000000000001e5d8                OSWaitRendezvousWithTimeout
                0x000000000001e5e0                OSWaitSemaphore
                0x000000000001e5e8                OSWakeupThread
                0x000000000001e5f0                OSWriteRegister16
                0x000000000001e5f8                OSWriteRegister32
                0x000000000001e600                OSXorAtomic
                0x000000000001e608                OSXorAtomic64
                0x000000000001e610                OSYieldThread
                0x000000000001e618                PMBegin
                0x000000000001e620                PMCycles
                0x000000000001e628                PMEnd
                0x000000000001e630                PMInstructions
                0x000000000001e638                PML1FetchMisses
                0x000000000001e640                PML1MissCycles
                0x000000000001e648                PPCAndCMsr
                0x000000000001e650                PPCAndMsr
                0x000000000001e658                PPCDisableSpeculation
                0x000000000001e660                PPCEieio
                0x000000000001e668                PPCEnableSpeculation
                0x000000000001e670                PPCHalt
                0x000000000001e678                PPCIsync
                0x000000000001e680                PPCMfdec
                0x000000000001e688                PPCMfdmaL
                0x000000000001e690                PPCMfdmaU
                0x000000000001e698                PPCMffpscr
                0x000000000001e6a0                PPCMfhid0
                0x000000000001e6a8                PPCMfhid1
                0x000000000001e6b0                PPCMfhid2
                0x000000000001e6b8                PPCMfhid4
                0x000000000001e6c0                PPCMfl2cr
                0x000000000001e6c8                PPCMfmmcr0
                0x000000000001e6d0                PPCMfmmcr1
                0x000000000001e6d8                PPCMfmsr
                0x000000000001e6e0                PPCMfpir
                0x000000000001e6e8                PPCMfpmc1
                0x000000000001e6f0                PPCMfpmc2
                0x000000000001e6f8                PPCMfpmc3
                0x000000000001e700                PPCMfpmc4
                0x000000000001e708                PPCMfpvr
                0x000000000001e710                PPCMfsia
                0x000000000001e718                PPCMfsprg0
                0x000000000001e720                PPCMfwpar
                0x000000000001e728                PPCMtdec
                0x000000000001e730                PPCMtdmaL
                0x000000000001e738                PPCMtdmaU
                0x000000000001e740                PPCMtfpscr
                0x000000000001e748                PPCMthid0
                0x000000000001e750                PPCMthid2
                0x000000000001e758                PPCMthid4
                0x000000000001e760                PPCMtl2cr
                0x000000000001e768                PPCMtmmcr0
                0x000000000001e770                PPCMtmmcr1
                0x000000000001e778                PPCMtmsr
                0x000000000001e780                PPCMtpmc1
                0x000000000001e788                PPCMtpmc2
                0x000000000001e790                PPCMtpmc3
                0x000000000001e798                PPCMtpmc4
                0x000000000001e7a0                PPCMtsia
                0x000000000001e7a8                PPCMtwpar
                0x000000000001e7b0                PPCOrMsr
                0x000000000001e7b8                PPCSetFpIEEEMode
                0x000000000001e7c0                PPCSetFpNonIEEEMode
                0x000000000001e7c8                PPCSync
                0x000000000001e7d0                UCClose
                0x000000000001e7d8                UCDeleteSysConfig
                0x000000000001e7e0                UCDeleteSysConfigAsync
                0x000000000001e7e8                UCListSysConfig
                0x000000000001e7f0                UCListSysConfigAsync
                0x000000000001e7f8                UCOpen
                0x000000000001e800                UCQuerySysConfig
                0x000000000001e808                UCQuerySysConfigAsync
                0x000000000001e810                UCReadSysConfig
                0x000000000001e818                UCReadSysConfigAsync
                0x000000000001e820                UCWriteSysConfig
                0x000000000001e828                UCWriteSysConfigAsync
                0x000000000001e830                _Exit
                0x000000000001e838                __FSAShimAllocateBuffer
                0x000000000001e840                __FSAShimCheckClientHandle
                0x000000000001e848                __FSAShimDecodeIosErrorToFsaStatus
                0x000000000001e850                __FSAShimFreeBuffer
                0x000000000001e858                __KernelAllocateTimer
                0x000000000001e860                __KernelFreeTimer
                0x000000000001e868                __KernelGetInfo
                0x000000000001e870                __KernelPrimeTimer
                0x000000000001e878                __KernelSendICI
                0x000000000001e880                __KernelSetUserModeExHandler
                0x000000000001e888                __KernelStopTimer
                0x000000000001e890                __OSAcquireIdLock
                0x000000000001e898                __OSAppendCopyData
                0x000000000001e8a0                __OSBoostThreadPriority
                0x000000000001e8a8                __OSCalendarTimeToPOSIXTime
                0x000000000001e8b0                __OSClearAndEnableInterrupt
                0x000000000001e8b8                __OSClearAppCrash
                0x000000000001e8c0                __OSClearCopyData
                0x000000000001e8c8                __OSClearSavedFrame
                0x000000000001e8d0                __OSConsoleWrite
                0x000000000001e8d8                __OSCreateThreadType
                0x000000000001e8e0                __OSDeboostThreadPrioriy
                0x000000000001e8e8                __OSDisableInterrupt
                0x000000000001e8f0                __OSDisableScheduler
                0x000000000001e8f8                __OSDumpActiveThreads
                0x000000000001e900                __OSEnableScheduler
                0x000000000001e908                __OSFairSpinLock
                0x000000000001e910                __OSFairSpinUnlock
                0x000000000001e918                __OSGetAppCrashControl
                0x000000000001e920                __OSGetAppFlags
                0x000000000001e928                __OSGetCopyArea
                0x000000000001e930                __OSGetCopyDataPtr
                0x000000000001e938                __OSGetCopyDataSize
                0x000000000001e940                __OSGetCosReportMasks
                0x000000000001e948                __OSGetCrashDetailLevel
                0x000000000001e950                __OSGetCrashRecovery
                0x000000000001e958                __OSGetEffectivePriority
                0x000000000001e960                __OSGetKernelStatistics
                0x000000000001e968                __OSGetProcDataBounds
                0x000000000001e970                __OSGetProcessSDKVersion
                0x000000000001e978                __OSGetSavedAudioFlags
                0x000000000001e980                __OSGetSavedFrame
                0x000000000001e988                __OSGetSavedFrameA
                0x000000000001e990                __OSGetSavedFrameB
                0x000000000001e998                __OSGetSavedFrameGammaA
                0x000000000001e9a0                __OSGetSavedFrameGammaB
                0x000000000001e9a8                __OSGetSavedFramePtr
                0x000000000001e9b0                __OSGetSavedFramePtrForRead
                0x000000000001e9b8                __OSGetSavedFramePtrForWrite
                0x000000000001e9c0                __OSGetSavedFrames
                0x000000000001e9c8                __OSGetSavedFramesA
                0x000000000001e9d0                __OSGetSavedFramesB
                0x000000000001e9d8                __OSGetStatistics
                0x000000000001e9e0                __OSGetSwitchTarget
                0x000000000001e9e8                __OSGetSymbolName
                0x000000000001e9f0                __OSGetTestSetting
                0x000000000001e9f8                __OSGetTimestampLevel
                0x000000000001ea00                __OSGetTitleVersion
                0x000000000001ea08                __OSGetTransitionAudioBuffer
                0x000000000001ea10                __OSGetTransitionAudioSize
                0x000000000001ea18                __OSGetWriteGatherRegs
                0x000000000001ea20                __OSHandleECOPowerEventOnBoot
                0x000000000001ea28                __OSHandlePowerEvents
                0x000000000001ea30                __OSIsProcessRunning
                0x000000000001ea38                __OSLockScheduler
                0x000000000001ea40                __OSLogReportKernel
                0x000000000001ea48                __OSPhysicalToEffectiveCached
                0x000000000001ea50                __OSPhysicalToEffectiveUncached
                0x000000000001ea58                __OSReadRegister32Ex
                0x000000000001ea60                __OSRecycle
                0x000000000001ea68                __OSReleaseIdLock
                0x000000000001ea70                __OSReschedule
                0x000000000001ea78                __OSResetSavedFrame
                0x000000000001ea80                __OSResizeCopyData
                0x000000000001ea88                __OSRootLoadShared
                0x000000000001ea90                __OSSaveCosReportMasks
                0x000000000001ea98                __OSSaveCrashDetailLevel
                0x000000000001eaa0                __OSSaveCrashRecovery
                0x000000000001eaa8                __OSSaveTimestampLevel
                0x000000000001eab0                __OSSaveWGData
                0x000000000001eab8                __OSSendMessageInternal
                0x000000000001eac0                __OSSetAbsoluteSystemTime
                0x000000000001eac8                __OSSetAbsoluteSystemTimeUserMode
                0x000000000001ead0                __OSSetAndLoadContext
                0x000000000001ead8                __OSSetAppCrashControl
                0x000000000001eae0                __OSSetCoreTrace
                0x000000000001eae8                __OSSetCosReportMasks
                0x000000000001eaf0                __OSSetCrashDetailLevel
                0x000000000001eaf8                __OSSetCrashRecovery
                0x000000000001eb00                __OSSetCurrentUserContext
                0x000000000001eb08                __OSSetDABR
                0x000000000001eb10                __OSSetDumpMode
                0x000000000001eb18                __OSSetIABR
                0x000000000001eb20                __OSSetInterruptHandler
                0x000000000001eb28                __OSSetLastError
                0x000000000001eb30                __OSSetLaunchTimeout
                0x000000000001eb38                __OSSetSavedAudioFlags
                0x000000000001eb40                __OSSetSavedFrame
                0x000000000001eb48                __OSSetSavedFrameGamma
                0x000000000001eb50                __OSSetTestSetting
                0x000000000001eb58                __OSSetTimestampLevel
                0x000000000001eb60                __OSSetTransitionAudioSize
                0x000000000001eb68                __OSSpinLock
                0x000000000001eb70                __OSSpinUnlock
                0x000000000001eb78                __OSSuspendThreadNolock
                0x000000000001eb80                __OSTestAssistReadPhysical32
                0x000000000001eb88                __OSTestSystemMode
                0x000000000001eb90                __OSTouchSchedulerLock
                0x000000000001eb98                __OSTryLockScheduler
                0x000000000001eba0                __OSTrySpinLock
                0x000000000001eba8                __OSUnlockScheduler
                0x000000000001ebb0                __OSValidateAddressSpaceRange
                0x000000000001ebb8                __OSWriteRegister32Ex
                0x000000000001ebc0                __OSZeroProcessMemory
                0x000000000001ebc8                __PPCExit
                0x000000000001ebd0                __PPCHalt
                0x000000000001ebd8                __os_snprintf
                0x000000000001ebe0                bspGetConsoleTypeRaw
                0x000000000001ebe8                bspGetEntityVersion
                0x000000000001ebf0                bspGetHardwareVersion
                0x000000000001ebf8                bspInitialize
                0x000000000001ec00                bspInitializeShimInterface
                0x000000000001ec08                bspQuery
                0x000000000001ec10                bspRead
                0x000000000001ec18                bspShutdown
                0x000000000001ec20                bspWrite
                0x000000000001ec28                exit
                0x000000000001ec30                smdPpcClose
                0x000000000001ec38                smdPpcGetCtrlTableVectors
                0x000000000001ec40                smdPpcGetInterfaceState
                0x000000000001ec48                smdPpcInit
                0x000000000001ec50                smdPpcOpen
                0x000000000001ec58                smdPpcReceive
                0x000000000001ec60                smdPpcSendMessage
                0x000000000001ec68                smdPpcSendVector
                0x000000000001ec70                smdPpcSendVectorSpec
                0x000000000001ec78                smdSimpleBufAlloc
                0x000000000001ec80                smdSimpleBufFree
                0x000000000001ec88                smdSimpleBufGetStatistics
                0x000000000001ec90                smdSimpleBufPoolCreate

.fimport_dc
 *(.fimport_dc)

.fimport_dmae
 *(.fimport_dmae)

.fimport_drmapp
 *(.fimport_drmapp)

.fimport_erreula
 *(.fimport_erreula)

.fimport_gx2    0x000000000001eca0      0xb98
 *(.fimport_gx2)
 .fimport_gx2   0x000000000001eca0      0xb98 /opt/wut/lib/libgx2.a(gx2.s.obj)
                0x000000000001eca8                GX2AllocateTilingApertureEx
                0x000000000001ecb0                GX2BeginDisplayListEx
                0x000000000001ecb8                GX2BeginGPUTask
                0x000000000001ecc0                GX2CPUTimeToGPUTime
                0x000000000001ecc8                GX2CalcColorBufferAuxInfo
                0x000000000001ecd0                GX2CalcDRCSize
                0x000000000001ecd8                GX2CalcDepthBufferHiZInfo
                0x000000000001ece0                GX2CalcFetchShaderSizeEx
                0x000000000001ece8                GX2CalcGeometryShaderInputRingBufferSize
                0x000000000001ecf0                GX2CalcGeometryShaderOutputRingBufferSize
                0x000000000001ecf8                GX2CalcSurfaceSizeAndAlignment
                0x000000000001ed00                GX2CalcTVSize
                0x000000000001ed08                GX2CallDisplayList
                0x000000000001ed10                GX2CheckSurfaceUseVsFormat
                0x000000000001ed18                GX2ClearBuffersEx
                0x000000000001ed20                GX2ClearColor
                0x000000000001ed28                GX2ClearDepthStencilEx
                0x000000000001ed30                GX2ConvertDepthBufferToTextureSurface
                0x000000000001ed38                GX2CopyColorBufferToScanBuffer
                0x000000000001ed40                GX2CopyDisplayList
                0x000000000001ed48                GX2CopySurface
                0x000000000001ed50                GX2CopySurfaceEx
                0x000000000001ed58                GX2DebugCaptureEnd
                0x000000000001ed60                GX2DebugCaptureFrame
                0x000000000001ed68                GX2DebugCaptureFrames
                0x000000000001ed70                GX2DebugCaptureStart
                0x000000000001ed78                GX2DebugTagUserString
                0x000000000001ed80                GX2DebugTagUserStringVA
                0x000000000001ed88                GX2DirectCallDisplayList
                0x000000000001ed90                GX2DispatchCompute
                0x000000000001ed98                GX2DrawDone
                0x000000000001eda0                GX2DrawEx
                0x000000000001eda8                GX2DrawEx2
                0x000000000001edb0                GX2DrawIndexedEx
                0x000000000001edb8                GX2DrawIndexedEx2
                0x000000000001edc0                GX2DrawIndexedImmediateEx
                0x000000000001edc8                GX2DrawStreamOut
                0x000000000001edd0                GX2EndDisplayList
                0x000000000001edd8                GX2EndGPUTask
                0x000000000001ede0                GX2ExpandAAColorBuffer
                0x000000000001ede8                GX2ExpandDepthBuffer
                0x000000000001edf0                GX2Flush
                0x000000000001edf8                GX2FreeTilingAperture
                0x000000000001ee00                GX2GPUTimeToCPUTime
                0x000000000001ee08                GX2GetAAMaskReg
                0x000000000001ee10                GX2GetAlphaTestReg
                0x000000000001ee18                GX2GetAlphaToMaskReg
                0x000000000001ee20                GX2GetAttribFormatBits
                0x000000000001ee28                GX2GetBlendConstantColorReg
                0x000000000001ee30                GX2GetBlendControlReg
                0x000000000001ee38                GX2GetColorControlReg
                0x000000000001ee40                GX2GetContextStateDisplayList
                0x000000000001ee48                GX2GetCounterResult
                0x000000000001ee50                GX2GetCounterResultEx
                0x000000000001ee58                GX2GetCounterResultSize
                0x000000000001ee60                GX2GetCounterSetting
                0x000000000001ee68                GX2GetCurrentDisplayList
                0x000000000001ee70                GX2GetCurrentScanBuffer
                0x000000000001ee78                GX2GetDRCGamma
                0x000000000001ee80                GX2GetDRCGammaEx
                0x000000000001ee88                GX2GetDRCVerticalInfo
                0x000000000001ee90                GX2GetDefaultAllocator
                0x000000000001ee98                GX2GetDepthStencilControlReg
                0x000000000001eea0                GX2GetDisplayListWriteStatus
                0x000000000001eea8                GX2GetEventCallback
                0x000000000001eeb0                GX2GetGPUSystemClock
                0x000000000001eeb8                GX2GetGPUTimeout
                0x000000000001eec0                GX2GetGeometryShaderGPRs
                0x000000000001eec8                GX2GetGeometryShaderStackEntries
                0x000000000001eed0                GX2GetLastFrame
                0x000000000001eed8                GX2GetLastFrameGamma
                0x000000000001eee0                GX2GetLastFrameGammaA
                0x000000000001eee8                GX2GetLastFrameGammaB
                0x000000000001eef0                GX2GetLastSubmittedTimeStamp
                0x000000000001eef8                GX2GetLineWidthReg
                0x000000000001ef00                GX2GetMainCoreId
                0x000000000001ef08                GX2GetMiscParam
                0x000000000001ef10                GX2GetPerfMetricF32
                0x000000000001ef18                GX2GetPerfMetricType
                0x000000000001ef20                GX2GetPerfMetricU64
                0x000000000001ef28                GX2GetPixelShaderGPRs
                0x000000000001ef30                GX2GetPixelShaderStackEntries
                0x000000000001ef38                GX2GetPointLimitsReg
                0x000000000001ef40                GX2GetPointSizeReg
                0x000000000001ef48                GX2GetPolygonControlReg
                0x000000000001ef50                GX2GetPolygonOffsetReg
                0x000000000001ef58                GX2GetRetiredTimeStamp
                0x000000000001ef60                GX2GetScissorReg
                0x000000000001ef68                GX2GetStencilMaskReg
                0x000000000001ef70                GX2GetSurfaceFormatBits
                0x000000000001ef78                GX2GetSurfaceMipPitch
                0x000000000001ef80                GX2GetSurfaceMipSliceSize
                0x000000000001ef88                GX2GetSurfaceSwizzle
                0x000000000001ef90                GX2GetSurfaceSwizzleOffset
                0x000000000001ef98                GX2GetSwapInterval
                0x000000000001efa0                GX2GetSwapStatus
                0x000000000001efa8                GX2GetSystemDRCMode
                0x000000000001efb0                GX2GetSystemDRCScanMode
                0x000000000001efb8                GX2GetSystemTVAspectRatio
                0x000000000001efc0                GX2GetSystemTVScanMode
                0x000000000001efc8                GX2GetSystemTVStereoDisplayCapability
                0x000000000001efd0                GX2GetTVGamma
                0x000000000001efd8                GX2GetTVGammaEx
                0x000000000001efe0                GX2GetTargetChannelMasksReg
                0x000000000001efe8                GX2GetVertexShaderGPRs
                0x000000000001eff0                GX2GetVertexShaderStackEntries
                0x000000000001eff8                GX2GetViewportReg
                0x000000000001f000                GX2Init
                0x000000000001f008                GX2InitAAMaskReg
                0x000000000001f010                GX2InitAlphaTestReg
                0x000000000001f018                GX2InitAlphaToMaskReg
                0x000000000001f020                GX2InitBlendConstantColorReg
                0x000000000001f028                GX2InitBlendControlReg
                0x000000000001f030                GX2InitColorBufferRegs
                0x000000000001f038                GX2InitColorControlReg
                0x000000000001f040                GX2InitCounterInfo
                0x000000000001f048                GX2InitDepthBufferHiZEnable
                0x000000000001f050                GX2InitDepthBufferRangeBase
                0x000000000001f058                GX2InitDepthBufferRegs
                0x000000000001f060                GX2InitDepthStencilControlReg
                0x000000000001f068                GX2InitFetchShaderEx
                0x000000000001f070                GX2InitHiStencilInfoRegs
                0x000000000001f078                GX2InitLineWidthReg
                0x000000000001f080                GX2InitPerfMetric
                0x000000000001f088                GX2InitPointLimitsReg
                0x000000000001f090                GX2InitPointSizeReg
                0x000000000001f098                GX2InitPolygonControlReg
                0x000000000001f0a0                GX2InitPolygonOffsetReg
                0x000000000001f0a8                GX2InitSampler
                0x000000000001f0b0                GX2InitSamplerBorderType
                0x000000000001f0b8                GX2InitSamplerClamping
                0x000000000001f0c0                GX2InitSamplerDepthCompare
                0x000000000001f0c8                GX2InitSamplerFilterAdjust
                0x000000000001f0d0                GX2InitSamplerLOD
                0x000000000001f0d8                GX2InitSamplerLODAdjust
                0x000000000001f0e0                GX2InitSamplerRoundingMode
                0x000000000001f0e8                GX2InitSamplerXYFilter
                0x000000000001f0f0                GX2InitSamplerZMFilter
                0x000000000001f0f8                GX2InitScissorReg
                0x000000000001f100                GX2InitStencilMaskReg
                0x000000000001f108                GX2InitTargetChannelMasksReg
                0x000000000001f110                GX2InitTextureRegs
                0x000000000001f118                GX2InitViewportReg
                0x000000000001f120                GX2InsertGPUTask
                0x000000000001f128                GX2Invalidate
                0x000000000001f130                GX2IsVideoOutReady
                0x000000000001f138                GX2LogSetMisc
                0x000000000001f140                GX2MarkScanBufferCopied
                0x000000000001f148                GX2NotifyMemAlloc
                0x000000000001f150                GX2NotifyMemFree
                0x000000000001f158                GX2PatchDisplayList
                0x000000000001f160                GX2PerfFrameEnd
                0x000000000001f168                GX2PerfFrameStart
                0x000000000001f170                GX2PerfFree
                0x000000000001f178                GX2PerfGetCollectionMethod
                0x000000000001f180                GX2PerfGetNumPasses
                0x000000000001f188                GX2PerfGetPassCoherEnable
                0x000000000001f190                GX2PerfGetResultByFrame
                0x000000000001f198                GX2PerfGetResultByTagId
                0x000000000001f1a0                GX2PerfGetResultByTagSequence
                0x000000000001f1a8                GX2PerfInit
                0x000000000001f1b0                GX2PerfMetricEnable
                0x000000000001f1b8                GX2PerfMetricGetEnabled
                0x000000000001f1c0                GX2PerfMetricIsEnabled
                0x000000000001f1c8                GX2PerfMetricsClear
                0x000000000001f1d0                GX2PerfPassEnd
                0x000000000001f1d8                GX2PerfPassStart
                0x000000000001f1e0                GX2PerfPrintFrameResults
                0x000000000001f1e8                GX2PerfPrintTagResults
                0x000000000001f1f0                GX2PerfSetCollectionMethod
                0x000000000001f1f8                GX2PerfSetPassCoherEnable
                0x000000000001f200                GX2PerfTagDisableAll
                0x000000000001f208                GX2PerfTagEnable
                0x000000000001f210                GX2PerfTagEnableAll
                0x000000000001f218                GX2PerfTagEnd
                0x000000000001f220                GX2PerfTagIsEnabled
                0x000000000001f228                GX2PerfTagStart
                0x000000000001f230                GX2PrintGPUStatus
                0x000000000001f238                GX2ProtectLastFrame
                0x000000000001f240                GX2QueryBegin
                0x000000000001f248                GX2QueryBeginConditionalRender
                0x000000000001f250                GX2QueryEnd
                0x000000000001f258                GX2QueryEndConditionalRender
                0x000000000001f260                GX2QueryGetOcclusionResult
                0x000000000001f268                GX2QueryGetStreamOutStatsResult
                0x000000000001f270                GX2RBeginDisplayListEx
                0x000000000001f278                GX2RBufferExists
                0x000000000001f280                GX2RCallDisplayList
                0x000000000001f288                GX2RCreateBuffer
                0x000000000001f290                GX2RCreateBufferUserMemory
                0x000000000001f298                GX2RCreateSurface
                0x000000000001f2a0                GX2RCreateSurfaceUserMemory
                0x000000000001f2a8                GX2RDestroyBufferEx
                0x000000000001f2b0                GX2RDestroySurfaceEx
                0x000000000001f2b8                GX2RDirectCallDisplayList
                0x000000000001f2c0                GX2RDrawIndexed
                0x000000000001f2c8                GX2RDrawIndexedImmediate
                0x000000000001f2d0                GX2REndDisplayList
                0x000000000001f2d8                GX2RGetBufferAlignment
                0x000000000001f2e0                GX2RGetBufferAllocationSize
                0x000000000001f2e8                GX2RGetBufferGuardBandSize
                0x000000000001f2f0                GX2RGetBufferName
                0x000000000001f2f8                GX2RGetDebugOptions
                0x000000000001f300                GX2RGetSurfaceName
                0x000000000001f308                GX2RInitFetchShader
                0x000000000001f310                GX2RInvalidateBuffer
                0x000000000001f318                GX2RInvalidateMemory
                0x000000000001f320                GX2RInvalidateSurface
                0x000000000001f328                GX2RIsUserMemory
                0x000000000001f330                GX2RLockBufferEx
                0x000000000001f338                GX2RLockBufferRegionEx
                0x000000000001f340                GX2RLockSurfaceEx
                0x000000000001f348                GX2RSetAllocator
                0x000000000001f350                GX2RSetAttributeBuffer
                0x000000000001f358                GX2RSetBufferName
                0x000000000001f360                GX2RSetDebugOptions
                0x000000000001f368                GX2RSetGeometryShaderInputRingBuffer
                0x000000000001f370                GX2RSetGeometryShaderOutputRingBuffer
                0x000000000001f378                GX2RSetGeometryUniformBlock
                0x000000000001f380                GX2RSetPixelUniformBlock
                0x000000000001f388                GX2RSetStreamOutBuffer
                0x000000000001f390                GX2RSetSurfaceName
                0x000000000001f398                GX2RSetVertexUniformBlock
                0x000000000001f3a0                GX2RSurfaceExists
                0x000000000001f3a8                GX2RUnlockBufferEx
                0x000000000001f3b0                GX2RUnlockSurfaceEx
                0x000000000001f3b8                GX2ResetCounterInfo
                0x000000000001f3c0                GX2ResetCounters
                0x000000000001f3c8                GX2ResetGPU
                0x000000000001f3d0                GX2ResolveAAColorBuffer
                0x000000000001f3d8                GX2SampleBottomGPUCycle
                0x000000000001f3e0                GX2SampleCounters
                0x000000000001f3e8                GX2SampleCountersEx
                0x000000000001f3f0                GX2SampleTopGPUCycle
                0x000000000001f3f8                GX2SaveStreamOutContext
                0x000000000001f400                GX2SetAAMask
                0x000000000001f408                GX2SetAAMaskReg
                0x000000000001f410                GX2SetAAMode
                0x000000000001f418                GX2SetAAModeEx
                0x000000000001f420                GX2SetAlphaTest
                0x000000000001f428                GX2SetAlphaTestReg
                0x000000000001f430                GX2SetAlphaToMask
                0x000000000001f438                GX2SetAlphaToMaskReg
                0x000000000001f440                GX2SetAttribBuffer
                0x000000000001f448                GX2SetBlendConstantColor
                0x000000000001f450                GX2SetBlendConstantColorReg
                0x000000000001f458                GX2SetBlendControl
                0x000000000001f460                GX2SetBlendControlReg
                0x000000000001f468                GX2SetClearDepth
                0x000000000001f470                GX2SetClearDepthStencil
                0x000000000001f478                GX2SetClearStencil
                0x000000000001f480                GX2SetColorBuffer
                0x000000000001f488                GX2SetColorControl
                0x000000000001f490                GX2SetColorControlReg
                0x000000000001f498                GX2SetComputeSampler
                0x000000000001f4a0                GX2SetComputeSamplerBorderColor
                0x000000000001f4a8                GX2SetComputeShader
                0x000000000001f4b0                GX2SetComputeTexture
                0x000000000001f4b8                GX2SetComputeUniformBlock
                0x000000000001f4c0                GX2SetContextState
                0x000000000001f4c8                GX2SetCounterInfo
                0x000000000001f4d0                GX2SetCullOnlyControl
                0x000000000001f4d8                GX2SetDRCBuffer
                0x000000000001f4e0                GX2SetDRCConnectCallback
                0x000000000001f4e8                GX2SetDRCEnable
                0x000000000001f4f0                GX2SetDRCGamma
                0x000000000001f4f8                GX2SetDRCScale
                0x000000000001f500                GX2SetDebugMode
                0x000000000001f508                GX2SetDefaultAllocator
                0x000000000001f510                GX2SetDefaultState
                0x000000000001f518                GX2SetDepthBuffer
                0x000000000001f520                GX2SetDepthOnlyControl
                0x000000000001f528                GX2SetDepthStencilControl
                0x000000000001f530                GX2SetDepthStencilControlReg
                0x000000000001f538                GX2SetEventCallback
                0x000000000001f540                GX2SetFetchShader
                0x000000000001f548                GX2SetGPUFence
                0x000000000001f550                GX2SetGPUTimeout
                0x000000000001f558                GX2SetGeometrySampler
                0x000000000001f560                GX2SetGeometrySamplerBorderColor
                0x000000000001f568                GX2SetGeometryShader
                0x000000000001f570                GX2SetGeometryShaderInputRingBuffer
                0x000000000001f578                GX2SetGeometryShaderOutputRingBuffer
                0x000000000001f580                GX2SetGeometryTexture
                0x000000000001f588                GX2SetGeometryUniformBlock
                0x000000000001f590                GX2SetHiStencilInfo
                0x000000000001f598                GX2SetInterruptCountLimit
                0x000000000001f5a0                GX2SetLineWidth
                0x000000000001f5a8                GX2SetLineWidthReg
                0x000000000001f5b0                GX2SetMaxTessellationLevel
                0x000000000001f5b8                GX2SetMinTessellationLevel
                0x000000000001f5c0                GX2SetMiscParam
                0x000000000001f5c8                GX2SetPixelSampler
                0x000000000001f5d0                GX2SetPixelSamplerBorderColor
                0x000000000001f5d8                GX2SetPixelShader
                0x000000000001f5e0                GX2SetPixelTexture
                0x000000000001f5e8                GX2SetPixelUniformBlock
                0x000000000001f5f0                GX2SetPixelUniformReg
                0x000000000001f5f8                GX2SetPointLimits
                0x000000000001f600                GX2SetPointLimitsReg
                0x000000000001f608                GX2SetPointSize
                0x000000000001f610                GX2SetPointSizeReg
                0x000000000001f618                GX2SetPolygonControl
                0x000000000001f620                GX2SetPolygonControlReg
                0x000000000001f628                GX2SetPolygonOffset
                0x000000000001f630                GX2SetPolygonOffsetReg
                0x000000000001f638                GX2SetPrimitiveRestartIndex
                0x000000000001f640                GX2SetRasterizerClipControl
                0x000000000001f648                GX2SetRasterizerClipControlEx
                0x000000000001f650                GX2SetRasterizerClipControlHalfZ
                0x000000000001f658                GX2SetScissor
                0x000000000001f660                GX2SetScissorReg
                0x000000000001f668                GX2SetSemaphore
                0x000000000001f670                GX2SetShaderExportBuffer
                0x000000000001f678                GX2SetShaderModeEx
                0x000000000001f680                GX2SetSpecialState
                0x000000000001f688                GX2SetStencilMask
                0x000000000001f690                GX2SetStencilMaskReg
                0x000000000001f698                GX2SetStreamOutBuffer
                0x000000000001f6a0                GX2SetStreamOutContext
                0x000000000001f6a8                GX2SetStreamOutEnable
                0x000000000001f6b0                GX2SetSurfaceSwizzle
                0x000000000001f6b8                GX2SetSwapInterval
                0x000000000001f6c0                GX2SetTVBuffer
                0x000000000001f6c8                GX2SetTVEnable
                0x000000000001f6d0                GX2SetTVGamma
                0x000000000001f6d8                GX2SetTVScale
                0x000000000001f6e0                GX2SetTVStereoMode
                0x000000000001f6e8                GX2SetTargetChannelMasks
                0x000000000001f6f0                GX2SetTargetChannelMasksReg
                0x000000000001f6f8                GX2SetTessellation
                0x000000000001f700                GX2SetVerifyCallback
                0x000000000001f708                GX2SetVerifyLevel
                0x000000000001f710                GX2SetVertexSampler
                0x000000000001f718                GX2SetVertexSamplerBorderColor
                0x000000000001f720                GX2SetVertexShader
                0x000000000001f728                GX2SetVertexTexture
                0x000000000001f730                GX2SetVertexUniformBlock
                0x000000000001f738                GX2SetVertexUniformReg
                0x000000000001f740                GX2SetVideoEncodingHint
                0x000000000001f748                GX2SetViewport
                0x000000000001f750                GX2SetViewportReg
                0x000000000001f758                GX2SetupContextStateEx
                0x000000000001f760                GX2Shutdown
                0x000000000001f768                GX2StartCounters
                0x000000000001f770                GX2StopCounters
                0x000000000001f778                GX2SubmitUserTimeStamp
                0x000000000001f780                GX2SurfaceIsCompressed
                0x000000000001f788                GX2SwapScanBuffers
                0x000000000001f790                GX2TempDumpGPUResourceContext
                0x000000000001f798                GX2TempDumpResources
                0x000000000001f7a0                GX2TempGetGPUVersion
                0x000000000001f7a8                GX2TempGetNonUserMemoryResourceCount
                0x000000000001f7b0                GX2TempGetResourceCount
                0x000000000001f7b8                GX2UDAGetLastAlert
                0x000000000001f7c0                GX2UDAResetAlertFireCount
                0x000000000001f7c8                GX2UDASetAlertEnable
                0x000000000001f7d0                GX2UDASetAlertLevel
                0x000000000001f7d8                GX2WaitForFlip
                0x000000000001f7e0                GX2WaitForFreeScanBuffer
                0x000000000001f7e8                GX2WaitForVsync
                0x000000000001f7f0                GX2WaitTimeStamp
                0x000000000001f7f8                _GX2DebugSetCaptureInterface
                0x000000000001f800                _GX2GetLastFrameB
                0x000000000001f808                _GX2InitCounterInfo
                0x000000000001f810                _GX2ResetCounters
                0x000000000001f818                _GX2SampleCounters
                0x000000000001f820                _GX2SetCounterInfo
                0x000000000001f828                _GX2StartCounters
                0x000000000001f830                _GX2StopCounters

.fimport_h264
 *(.fimport_h264)

.fimport_lzma920
 *(.fimport_lzma920)

.fimport_mic
 *(.fimport_mic)

.fimport_nfc
 *(.fimport_nfc)

.fimport_nio_prof
 *(.fimport_nio_prof)

.fimport_nlibcurl
 *(.fimport_nlibcurl)

.fimport_nlibnss2
 *(.fimport_nlibnss2)

.fimport_nlibnss
 *(.fimport_nlibnss)

.fimport_nn_ac
 *(.fimport_nn_ac)

.fimport_nn_acp
 *(.fimport_nn_acp)

.fimport_nn_act
 *(.fimport_nn_act)

.fimport_nn_aoc
 *(.fimport_nn_aoc)

.fimport_nn_boss
 *(.fimport_nn_boss)

.fimport_nn_ccr
 *(.fimport_nn_ccr)

.fimport_nn_cmpt
 *(.fimport_nn_cmpt)

.fimport_nn_dlp
 *(.fimport_nn_dlp)

.fimport_nn_ec
 *(.fimport_nn_ec)

.fimport_nn_fp
 *(.fimport_nn_fp)

.fimport_nn_hai
 *(.fimport_nn_hai)

.fimport_nn_hpad
 *(.fimport_nn_hpad)

.fimport_nn_idbe
 *(.fimport_nn_idbe)

.fimport_nn_ndm
 *(.fimport_nn_ndm)

.fimport_nn_nets2
 *(.fimport_nn_nets2)

.fimport_nn_nfp
 *(.fimport_nn_nfp)

.fimport_nn_nim
 *(.fimport_nn_nim)

.fimport_nn_olv
 *(.fimport_nn_olv)

.fimport_nn_pdm
 *(.fimport_nn_pdm)

.fimport_nn_save
 *(.fimport_nn_save)

.fimport_nn_sl
 *(.fimport_nn_sl)

.fimport_nn_spm
 *(.fimport_nn_spm)

.fimport_nn_temp
 *(.fimport_nn_temp)

.fimport_nn_uds
 *(.fimport_nn_uds)

.fimport_nn_vctl
 *(.fimport_nn_vctl)

.fimport_nsysccr
 *(.fimport_nsysccr)

.fimport_nsyshid
 *(.fimport_nsyshid)

.fimport_nsyskbd
 *(.fimport_nsyskbd)

.fimport_nsysnet
                0x000000000001f840      0x560
 *(.fimport_nsysnet)
 .fimport_nsysnet
                0x000000000001f840      0x560 /opt/wut/lib/libnsysnet.a(nsysnet.s.obj)
                0x000000000001f848                NSSLAddServerPKI
                0x000000000001f850                NSSLAddServerPKIExternal
                0x000000000001f858                NSSLAddServerPKIGroups
                0x000000000001f860                NSSLCreateConnection
                0x000000000001f868                NSSLCreateContext
                0x000000000001f870                NSSLDestroyConnection
                0x000000000001f878                NSSLDestroyContext
                0x000000000001f880                NSSLDoHandshake
                0x000000000001f888                NSSLEncrypt
                0x000000000001f890                NSSLExportInternalClientCertificate
                0x000000000001f898                NSSLExportInternalServerCertificate
                0x000000000001f8a0                NSSLFinish
                0x000000000001f8a8                NSSLFreeSession
                0x000000000001f8b0                NSSLGetCipherInfo
                0x000000000001f8b8                NSSLGetPeerCert
                0x000000000001f8c0                NSSLGetPeerCertSize
                0x000000000001f8c8                NSSLGetPending
                0x000000000001f8d0                NSSLGetSession
                0x000000000001f8d8                NSSLInit
                0x000000000001f8e0                NSSLNSECEncrypt
                0x000000000001f8e8                NSSLRead
                0x000000000001f8f0                NSSLRemoveSession
                0x000000000001f8f8                NSSLSetClientPKI
                0x000000000001f900                NSSLSetClientPKIExternal
                0x000000000001f908                NSSLSetSession
                0x000000000001f910                NSSLWrite
                0x000000000001f918                SOGetProxyConfig
                0x000000000001f920                WDAnalyzeScanResults
                0x000000000001f928                WDClose
                0x000000000001f930                WDDataTestStart
                0x000000000001f938                WDDataTestStop
                0x000000000001f940                WDFindGameInfoIe
                0x000000000001f948                WDFindInformationElement
                0x000000000001f950                WDFindVendSpecInformationElement
                0x000000000001f958                WDFindWpaInformationElement
                0x000000000001f960                WDGenWpsPin
                0x000000000001f968                WDGetAmd
                0x000000000001f970                WDGetAnt
                0x000000000001f978                WDGetCC
                0x000000000001f980                WDGetChan
                0x000000000001f988                WDGetLinkStatus
                0x000000000001f990                WDGetMacAddress
                0x000000000001f998                WDGetOtpCcSettings
                0x000000000001f9a0                WDGetPrivacyMode
                0x000000000001f9a8                WDGetRadioLevel
                0x000000000001f9b0                WDGetRssi
                0x000000000001f9b8                WDLinkDown
                0x000000000001f9c0                WDLinkUp
                0x000000000001f9c8                WDOpen
                0x000000000001f9d0                WDReceiveDataAsync
                0x000000000001f9d8                WDRegisterUdsEventsCallbacks
                0x000000000001f9e0                WDScan
                0x000000000001f9e8                WDScanAsync
                0x000000000001f9f0                WDSendDataAsync
                0x000000000001f9f8                WDSetAnt
                0x000000000001fa00                WDSetCC
                0x000000000001fa08                WDShimInit
                0x000000000001fa10                WDShowInfo
                0x000000000001fa18                WDSortByRSSI
                0x000000000001fa20                WDUdsChanMeas
                0x000000000001fa28                WDUdsCommitIe
                0x000000000001fa30                WDUdsDeleteIe
                0x000000000001fa38                WDUdsInitParent
                0x000000000001fa40                WDUdsSetIe
                0x000000000001fa48                WDUdsStartParent
                0x000000000001fa50                WDUdsStopParent
                0x000000000001fa58                WDUdsUninitParent
                0x000000000001fa60                WDWpsStart
                0x000000000001fa68                WDWpsStartAsync
                0x000000000001fa70                WDWpsStop
                0x000000000001fa78                accept
                0x000000000001fa80                bind
                0x000000000001fa88                clear_resolver_cache
                0x000000000001fa90                connect
                0x000000000001fa98                dns_abort_by_hname
                0x000000000001faa0                freeaddrinfo
                0x000000000001faa8                gai_strerror
                0x000000000001fab0                get_h_errno
                0x000000000001fab8                get_nssl_rm_fd
                0x000000000001fac0                get_socket_rm_fd
                0x000000000001fac8                getaddrinfo
                0x000000000001fad0                getaddrinfo_async
                0x000000000001fad8                getaddrinfo_async_rs
                0x000000000001fae0                getaddrinfo_rs
                0x000000000001fae8                gethostbyaddr
                0x000000000001faf0                gethostbyname
                0x000000000001faf8                getnameinfo
                0x000000000001fb00                getpeername
                0x000000000001fb08                getsocklibopt
                0x000000000001fb10                getsockname
                0x000000000001fb18                getsockopt
                0x000000000001fb20                htonl
                0x000000000001fb28                htons
                0x000000000001fb30                inet_aton
                0x000000000001fb38                inet_ntoa
                0x000000000001fb40                inet_ntoa_r
                0x000000000001fb48                inet_ntop
                0x000000000001fb50                inet_pton
                0x000000000001fb58                listen
                0x000000000001fb60                mw_socket
                0x000000000001fb68                netconf_close
                0x000000000001fb70                netconf_delete_profile
                0x000000000001fb78                netconf_get_all_profile_state
                0x000000000001fb80                netconf_get_assigned_address
                0x000000000001fb88                netconf_get_assigned_dns
                0x000000000001fb90                netconf_get_assigned_gateway
                0x000000000001fb98                netconf_get_assigned_subnet
                0x000000000001fba0                netconf_get_dns
                0x000000000001fba8                netconf_get_eth_cfg
                0x000000000001fbb0                netconf_get_if_adminstate
                0x000000000001fbb8                netconf_get_if_ipv4_info
                0x000000000001fbc0                netconf_get_if_ipv4_info_ex
                0x000000000001fbc8                netconf_get_if_linkstate
                0x000000000001fbd0                netconf_get_if_macaddr
                0x000000000001fbd8                netconf_get_if_operstate
                0x000000000001fbe0                netconf_get_ifstate
                0x000000000001fbe8                netconf_get_interface_mtu
                0x000000000001fbf0                netconf_get_last_wifi_link_error
                0x000000000001fbf8                netconf_get_profile_state
                0x000000000001fc00                netconf_get_proxy_config
                0x000000000001fc08                netconf_get_running
                0x000000000001fc10                netconf_get_startup_profile_id
                0x000000000001fc18                netconf_get_valid_flags
                0x000000000001fc20                netconf_get_wifi_cfg
                0x000000000001fc28                netconf_getopt
                0x000000000001fc30                netconf_init
                0x000000000001fc38                netconf_nv_load
                0x000000000001fc40                netconf_nv_read
                0x000000000001fc48                netconf_nv_store
                0x000000000001fc50                netconf_nv_write
                0x000000000001fc58                netconf_read_aoss_config
                0x000000000001fc60                netconf_read_compat_profile_id
                0x000000000001fc68                netconf_set_dns
                0x000000000001fc70                netconf_set_eth_cfg
                0x000000000001fc78                netconf_set_if_admin_state
                0x000000000001fc80                netconf_set_if_ipv4_info
                0x000000000001fc88                netconf_set_if_ipv4_info_ex
                0x000000000001fc90                netconf_set_interface_mtu
                0x000000000001fc98                netconf_set_proxy_config
                0x000000000001fca0                netconf_set_running
                0x000000000001fca8                netconf_set_startup_profile_id
                0x000000000001fcb0                netconf_set_valid_flag
                0x000000000001fcb8                netconf_set_wifi_cfg
                0x000000000001fcc0                netconf_setopt
                0x000000000001fcc8                netconf_write_aoss_config
                0x000000000001fcd0                netconf_write_compat_profile_id
                0x000000000001fcd8                ntohl
                0x000000000001fce0                ntohs
                0x000000000001fce8                recv
                0x000000000001fcf0                recvfrom
                0x000000000001fcf8                recvfrom_ex
                0x000000000001fd00                recvfrom_multi
                0x000000000001fd08                select
                0x000000000001fd10                send
                0x000000000001fd18                sendto
                0x000000000001fd20                sendto_multi
                0x000000000001fd28                sendto_multi_ex
                0x000000000001fd30                set_multicast_state
                0x000000000001fd38                set_resolver_allocator
                0x000000000001fd40                setsocklibopt
                0x000000000001fd48                setsockopt
                0x000000000001fd50                shutdown
                0x000000000001fd58                simple_ping
                0x000000000001fd60                simple_ping_result
                0x000000000001fd68                socket
                0x000000000001fd70                socket_lib_decode_error
                0x000000000001fd78                socket_lib_finish
                0x000000000001fd80                socket_lib_init
                0x000000000001fd88                socketclose
                0x000000000001fd90                socketclose_all
                0x000000000001fd98                socketlasterr

.fimport_nsysuhs
 *(.fimport_nsysuhs)

.fimport_nsysuvd
 *(.fimport_nsysuvd)

.fimport_ntag
 *(.fimport_ntag)

.fimport_padscore
 *(.fimport_padscore)

.fimport_proc_ui
 *(.fimport_proc_ui)

.fimport_sndcore2
 *(.fimport_sndcore2)

.fimport_snd_core
 *(.fimport_snd_core)

.fimport_snduser2
 *(.fimport_snduser2)

.fimport_snd_user
 *(.fimport_snd_user)

.fimport_swkbd
 *(.fimport_swkbd)

.fimport_sysapp
 *(.fimport_sysapp)

.fimport_tcl
 *(.fimport_tcl)

.fimport_tve
 *(.fimport_tve)

.fimport_uac
 *(.fimport_uac)

.fimport_uac_rpl
 *(.fimport_uac_rpl)

.fimport_usb_mic
 *(.fimport_usb_mic)

.fimport_uvc
 *(.fimport_uvc)

.fimport_uvd
 *(.fimport_uvd)

.fimport_vpadbase
 *(.fimport_vpadbase)

.fimport_vpad
 *(.fimport_vpad)

.fimport_zlib125
 *(.fimport_zlib125)

.dimport_coreinit
                0x000000000001fda0       0x40
 *(.dimport_coreinit)
 .dimport_coreinit
                0x000000000001fda0       0x40 /opt/wut/lib/libcoreinit.a(coreinit.s.obj)
                0x000000000001fda8                MEMAllocFromDefaultHeap
                0x000000000001fdb0                MEMAllocFromDefaultHeapEx
                0x000000000001fdb8                MEMFreeToDefaultHeap
                0x000000000001fdc0                OSDynLoad_gLoaderLock
                0x000000000001fdc8                __OSCurrentThread
                0x000000000001fdd0                __OSPlatformInfo
                0x000000000001fdd8                __OSSchedulerLock

.dimport_nn_act
 *(.dimport_nn_act)

.dimport_nn_boss
 *(.dimport_nn_boss)

.dimport_nn_ec
 *(.dimport_nn_ec)

.dimport_nn_nim
 *(.dimport_nn_nim)

.dimport_nn_sl
 *(.dimport_nn_sl)

.dimport_nn_uds
 *(.dimport_nn_uds)

.wups.meta      0x000000000001fde0       0xc4
 *(.wups.meta*)
 .wups.meta     0x000000000001fde0       0xc4 main.o
                0x000000000001fde0                wups_meta_license
                0x000000000001fdec                wups_meta_author
                0x000000000001fdfc                wups_meta_version
                0x000000000001fe0c                wups_meta_description
                0x000000000001fe60                wups_meta_buildtimestamp
                0x000000000001fe84                wups_meta_wups
                0x000000000001fe90                wups_meta_name
 *(.wups.meta*)

.wups.load      0x000000000001fea4       0x18
 *(.wups.load*)
 .wups.load     0x000000000001fea4       0x18 main.o
                0x000000000001fea4                wups_load_my_GX2CopyColorBufferToScanBuffer
 *(.wups.load*)

.wups.hooks     0x000000000001febc       0x28
 *(.wups.hooks*)
 .wups.hooks    0x000000000001febc       0x28 main.o
                0x000000000001febc                wups_hooks_on_app_ending
                0x000000000001fec4                wups_hooks_on_app_starting
                0x000000000001fecc                wups_hooks_deinit_plugin
                0x000000000001fed4                wups_hooks_init_plugin
                0x000000000001fedc                wups_hooks_init_fs
 *(.wups.hooks*)

.rela.dyn       0x000000000001fee4        0x0
 .rela.iplt     0x000000000001fee4        0x0 main.o
 .rela.text._ZN11FetchShaderD2Ev
                0x000000000001fee4        0x0 main.o
 .rela.text._ZN12VertexShaderD2Ev
                0x000000000001fee4        0x0 main.o
 .rela.text._ZN11PixelShaderD2Ev
                0x000000000001fee4        0x0 main.o
 .rela.text._ZN15Texture2DShaderD2Ev
                0x000000000001fee4        0x0 main.o
 .rela.text._ZN15Texture2DShaderC2Ev
                0x000000000001fee4        0x0 main.o
 .rela.sdata._ZTI6Shader
                0x000000000001fee4        0x0 main.o
 .rela.rodata._ZTI12VertexShader
                0x000000000001fee4        0x0 main.o
 .rela.rodata._ZTI11PixelShader
                0x000000000001fee4        0x0 main.o
 .rela.rodata._ZTI11FetchShader
                0x000000000001fee4        0x0 main.o
 .rela.rodata._ZTI15Texture2DShader
                0x000000000001fee4        0x0 main.o
 .rela.rodata._ZTV12VertexShader
                0x000000000001fee4        0x0 main.o
 .rela.rodata._ZTV11PixelShader
                0x000000000001fee4        0x0 main.o
 .rela.rodata._ZTV11FetchShader
                0x000000000001fee4        0x0 main.o
 .rela.rodata._ZTV15Texture2DShader
                0x000000000001fee4        0x0 main.o
 .rela.text._Znwj
                0x000000000001fee4        0x0 main.o
 .rela.text._ZNSt9bad_allocD2Ev
                0x000000000001fee4        0x0 main.o
 .rela.text._ZNSt9bad_allocD0Ev
                0x000000000001fee4        0x0 main.o
 .rela.rodata._ZTISt9bad_alloc
                0x000000000001fee4        0x0 main.o
 .rela.rodata._ZTVSt9bad_alloc
                0x000000000001fee4        0x0 main.o
 .rela.text.__gxx_personality_v0
                0x000000000001fee4        0x0 main.o
 .rela.text.__cxa_call_unexpected
                0x000000000001fee4        0x0 main.o
 .rela.text._ZN10__cxxabiv117__class_type_infoD2Ev
                0x000000000001fee4        0x0 main.o
 .rela.text._ZN10__cxxabiv117__class_type_infoD0Ev
                0x000000000001fee4        0x0 main.o
 .rela.rodata._ZTIN10__cxxabiv117__class_type_infoE
                0x000000000001fee4        0x0 main.o
 .rela.rodata._ZTVN10__cxxabiv117__class_type_infoE
                0x000000000001fee4        0x0 main.o
 .rela.sdata._ZTISt9exception
                0x000000000001fee4        0x0 main.o
 .rela.rodata._ZTISt13bad_exception
                0x000000000001fee4        0x0 main.o
 .rela.sdata._ZTIN10__cxxabiv115__forced_unwindE
                0x000000000001fee4        0x0 main.o
 .rela.sdata._ZTIN10__cxxabiv119__foreign_exceptionE
                0x000000000001fee4        0x0 main.o
 .rela.rodata._ZTVSt13bad_exception
                0x000000000001fee4        0x0 main.o
 .rela.text._ZN9__gnu_cxx24__concurrence_lock_errorD2Ev
                0x000000000001fee4        0x0 main.o
 .rela.text._ZN9__gnu_cxx26__concurrence_unlock_errorD2Ev
                0x000000000001fee4        0x0 main.o
 .rela.text._ZN9__gnu_cxx24__concurrence_lock_errorD0Ev
                0x000000000001fee4        0x0 main.o
 .rela.text._ZN9__gnu_cxx26__concurrence_unlock_errorD0Ev
                0x000000000001fee4        0x0 main.o
 .rela.text._ZN9__gnu_cxx30__throw_concurrence_lock_errorEv
                0x000000000001fee4        0x0 main.o
 .rela.text._ZN9__gnu_cxx32__throw_concurrence_unlock_errorEv
                0x000000000001fee4        0x0 main.o
 .rela.rodata._ZTIN9__gnu_cxx24__concurrence_lock_errorE
                0x000000000001fee4        0x0 main.o
 .rela.rodata._ZTIN9__gnu_cxx26__concurrence_unlock_errorE
                0x000000000001fee4        0x0 main.o
 .rela.rodata._ZTVN9__gnu_cxx24__concurrence_lock_errorE
                0x000000000001fee4        0x0 main.o
 .rela.rodata._ZTVN9__gnu_cxx26__concurrence_unlock_errorE
                0x000000000001fee4        0x0 main.o
 .rela.text._ZN10__cxxabiv120__si_class_type_infoD2Ev
                0x000000000001fee4        0x0 main.o
 .rela.text._ZN10__cxxabiv120__si_class_type_infoD0Ev
                0x000000000001fee4        0x0 main.o
 .rela.rodata._ZTIN10__cxxabiv120__si_class_type_infoE
                0x000000000001fee4        0x0 main.o
 .rela.rodata._ZTVN10__cxxabiv120__si_class_type_infoE
                0x000000000001fee4        0x0 main.o
 .rela.sdata._ZTISt9type_info
                0x000000000001fee4        0x0 main.o

/DISCARD/
 *(.abs)
 *(.comment)
 *(.gnu.attributes)
 *(.gnu.version)
 *(.gnu.version_d)
 *(.gnu.version_r)
OUTPUT(/home/ash/Code/VideoSquoosher/VideoSquoosher.mod elf32-powerpc)

.debug_info     0x0000000000000000     0x13fa
 .debug_info    0x0000000000000000     0x13fa /opt/devkitpro/wups/lib/libwups.a(fs_function_wrapper.o)

.debug_abbrev   0x0000000000000000      0x290
 .debug_abbrev  0x0000000000000000      0x290 /opt/devkitpro/wups/lib/libwups.a(fs_function_wrapper.o)

.debug_loc      0x0000000000000000      0x578
 .debug_loc     0x0000000000000000      0x578 /opt/devkitpro/wups/lib/libwups.a(fs_function_wrapper.o)

.debug_aranges  0x0000000000000000       0x20
 .debug_aranges
                0x0000000000000000       0x20 /opt/devkitpro/wups/lib/libwups.a(fs_function_wrapper.o)

.debug_line     0x0000000000000000      0x45b
 .debug_line    0x0000000000000000      0x45b /opt/devkitpro/wups/lib/libwups.a(fs_function_wrapper.o)

.debug_str      0x0000000000000000      0x951
 .debug_str     0x0000000000000000      0x951 /opt/devkitpro/wups/lib/libwups.a(fs_function_wrapper.o)
                                        0xa60 (size before relaxing)
